(lp0
(F-1.286697268486023
F-3.4143665743613383e-06
F-0.3367761969566345
tp1
a(F-1.4383673667907715
F-3.816837306658272e-06
F-0.34091293811798096
tp2
a(F-1.5834753513336182
F-4.201893716526683e-06
F-0.33658668398857117
tp3
a(F-1.8025931119918823
F-4.783342774317134e-06
F-0.3395201861858368
tp4
a(F-2.054049491882324
F-5.450604930956615e-06
F-0.33758583664894104
tp5
a(F-2.4012556076049805
F-6.371947165462188e-06
F-0.33745965361595154
tp6
a(F-2.893399953842163
F-7.677896974200848e-06
F-0.3381612002849579
tp7
a(F-3.6214091777801514
F-9.609733751858585e-06
F-0.3380235731601715
tp8
a(F-4.847586631774902
F-1.2863506526628044e-05
F-0.33889201283454895
tp9
a(F-7.2788801193237305
F-1.931516089825891e-05
F-0.338865727186203
tp10
a(F-10.149529457092285
F-2.6932688342640176e-05
F-0.23598109185695648
tp11
a(F-10.149463653564453
F-2.6932511900668032e-05
F0.00028975080931559205
tp12
a(F-10.159730911254883
F-2.6959756723954342e-05
F0.23679867386817932
tp13
a(F-10.147003173828125
F-2.6925983547698706e-05
F0.4729708433151245
tp14
a(F-10.157661437988281
F-2.695426701393444e-05
F0.7106991410255432
tp15
a(F-10.16624641418457
F-2.6977046218235046e-05
F0.949506402015686
tp16
a(F-10.152702331542969
F-2.6941106625599787e-05
F1.1871675252914429
tp17
a(F-10.150999069213867
F-2.6936586436931975e-05
F1.427158236503601
tp18
a(F-10.146040916442871
F-2.6923429686576128e-05
F1.6681104898452759
tp19
a(F-10.141888618469238
F-2.691241206775885e-05
F1.9108343124389648
tp20
a(F-1.293644905090332
F-0.07465682178735733
F-0.3391580283641815
tp21
a(F-1.440367579460144
F-0.08312425762414932
F-0.3419550061225891
tp22
a(F-1.5996105670928955
F-0.09231424331665039
F-0.3405821621417999
tp23
a(F-1.79844331741333
F-0.10378897190093994
F-0.3393021821975708
tp24
a(F-2.0388760566711426
F-0.11766445636749268
F-0.33564960956573486
tp25
a(F-2.4010376930236816
F-0.13856495916843414
F-0.3379904627799988
tp26
a(F-2.8904218673706055
F-0.16680754721164703
F-0.3383752405643463
tp27
a(F-3.622683525085449
F-0.20906668901443481
F-0.3387051522731781
tp28
a(F-4.8386125564575195
F-0.2792384922504425
F-0.3388274610042572
tp29
a(F-7.256230354309082
F-0.4187602996826172
F-0.3383733630180359
tp30
a(F-10.455031394958496
F-0.6033645272254944
F-0.2434885948896408
tp31
a(F-10.480792999267578
F-0.604851245880127
F0.00029970757896080613
tp32
a(F-10.469308853149414
F-0.6041885018348694
F0.24442020058631897
tp33
a(F-10.45711612701416
F-0.6034848690032959
F0.48823678493499756
tp34
a(F-10.466764450073242
F-0.6040416359901428
F0.7335445284843445
tp35
a(F-10.46668529510498
F-0.6040371060371399
F0.979193389415741
tp36
a(F-10.474693298339844
F-0.6044992208480835
F1.2268562316894531
tp37
a(F-10.472805976867676
F-0.6043903231620789
F1.4748519659042358
tp38
a(F-10.469635009765625
F-0.6042073369026184
F1.7241766452789307
tp39
a(F-10.488622665405273
F-0.6053031086921692
F1.9794505834579468
tp40
a(F-1.297835350036621
F-0.15029439330101013
F-0.3419615626335144
tp41
a(F-1.4252067804336548
F-0.16504450142383575
F-0.34005114436149597
tp42
a(F-1.5776422023773193
F-0.1826971173286438
F-0.3375878632068634
tp43
a(F-1.7680974006652832
F-0.204752579331398
F-0.3352484703063965
tp44
a(F-2.034862518310547
F-0.23564501106739044
F-0.33666738867759705
tp45
a(F-2.384171485900879
F-0.2760963439941406
F-0.3372979164123535
tp46
a(F-2.8769776821136475
F-0.3331652283668518
F-0.33848896622657776
tp47
a(F-3.600383758544922
F-0.4169384837150574
F-0.3383069336414337
tp48
a(F-4.806340217590332
F-0.5565929412841797
F-0.33825400471687317
tp49
a(F-7.22777795791626
F-0.8370048403739929
F-0.338735431432724
tp50
a(F-10.817480087280273
F-1.2527064085006714
F-0.25319206714630127
tp51
a(F-10.810972213745117
F-1.2519527673721313
F0.00031069840770214796
tp52
a(F-10.812424659729004
F-1.252120852470398
F0.253695547580719
tp53
a(F-10.8172607421875
F-1.2526808977127075
F0.507582426071167
tp54
a(F-10.801424026489258
F-1.2508469820022583
F0.7607917189598083
tp55
a(F-10.807798385620117
F-1.2515852451324463
F1.0161720514297485
tp56
a(F-10.80989933013916
F-1.2518285512924194
F1.2724616527557373
tp57
a(F-10.812788963317871
F-1.2521631717681885
F1.5303606986999512
tp58
a(F-10.800878524780273
F-1.2507838010787964
F1.7876397371292114
tp59
a(F-10.80193042755127
F-1.2509056329727173
F2.0487940311431885
tp60
a(F-1.2790380716323853
F-0.2234211266040802
F-0.33984053134918213
tp61
a(F-1.4231503009796143
F-0.2485945075750351
F-0.34241366386413574
tp62
a(F-1.5526061058044434
F-0.271207720041275
F-0.3350222110748291
tp63
a(F-1.7675269842147827
F-0.30874988436698914
F-0.33795636892318726
tp64
a(F-2.0401358604431152
F-0.35636892914772034
F-0.3403761088848114
tp65
a(F-2.367353677749634
F-0.4135270416736603
F-0.33773285150527954
tp66
a(F-2.836045265197754
F-0.4953976273536682
F-0.3364768326282501
tp67
a(F-3.570114850997925
F-0.6236242055892944
F-0.338281512260437
tp68
a(F-4.758176326751709
F-0.8311536312103271
F-0.3376781642436981
tp69
a(F-7.163717269897461
F-1.2513511180877686
F-0.3385542035102844
tp70
a(F-11.174823760986328
F-1.9520072937011719
F-0.263753741979599
tp71
a(F-11.176410675048828
F-1.9522844552993774
F0.00032389973057433963
tp72
a(F-11.18295955657959
F-1.9534285068511963
F0.26459431648254395
tp73
a(F-11.169755935668945
F-1.9511221647262573
F0.5285267233848572
tp74
a(F-11.182802200317383
F-1.95340096950531
F0.7942721843719482
tp75
a(F-11.181539535522461
F-1.9531804323196411
F1.0601457357406616
tp76
a(F-11.191283226013184
F-1.9548825025558472
F1.3284246921539307
tp77
a(F-11.16323184967041
F-1.9499824047088623
F1.5932354927062988
tp78
a(F-11.183629989624023
F-1.9535456895828247
F1.8665417432785034
tp79
a(F-11.180023193359375
F-1.9529156684875488
F2.138324499130249
tp80
a(F-1.2608811855316162
F-0.29599592089653015
F-0.3389907777309418
tp81
a(F-1.3986467123031616
F-0.32833680510520935
F-0.34051039814949036
tp82
a(F-1.5396850109100342
F-0.36144599318504333
F-0.3361755907535553
tp83
a(F-1.742504358291626
F-0.40905848145484924
F-0.33712461590766907
tp84
a(F-2.0014359951019287
F-0.4698435068130493
F-0.3378809094429016
tp85
a(F-2.3386781215667725
F-0.5490121841430664
F-0.33760011196136475
tp86
a(F-2.830324172973633
F-0.6644276976585388
F-0.33978185057640076
tp87
a(F-3.526655673980713
F-0.8278937339782715
F-0.338128000497818
tp88
a(F-4.6992268562316895
F-1.1031585931777954
F-0.33745110034942627
tp89
a(F-7.092132091522217
F-1.6649006605148315
F-0.3391474783420563
tp90
a(F-11.590461730957031
F-2.720897912979126
F-0.27680930495262146
tp91
a(F-11.579573631286621
F-2.7183420658111572
F0.00033956492552533746
tp92
a(F-11.58420181274414
F-2.719428300857544
F0.2773395776748657
tp93
a(F-11.566356658935547
F-2.7152392864227295
F0.5537858009338379
tp94
a(F-11.582500457763672
F-2.719028949737549
F0.8324210047721863
tp95
a(F-11.580636024475098
F-2.7185914516448975
F1.111011028289795
tp96
a(F-11.579625129699707
F-2.7183539867401123
F1.390828251838684
tp97
a(F-11.587339401245117
F-2.7201650142669678
F1.673384666442871
tp98
a(F-11.596441268920898
F-2.722301721572876
F1.958401083946228
tp99
a(F-11.587708473205566
F-2.7202515602111816
F2.2425928115844727
tp100
a(F-1.2418588399887085
F-0.36818307638168335
F-0.3390248417854309
tp101
a(F-1.3749909400939941
F-0.40765371918678284
F-0.33991295099258423
tp102
a(F-1.5142605304718018
F-0.44894400238990784
F-0.33572250604629517
tp103
a(F-1.7138811349868774
F-0.5081270337104797
F-0.33669978380203247
tp104
a(F-1.9464818239212036
F-0.5770878791809082
F-0.33367055654525757
tp105
a(F-2.299563407897949
F-0.6817685961723328
F-0.33707234263420105
tp106
a(F-2.767374038696289
F-0.8204638361930847
F-0.33734744787216187
tp107
a(F-3.462048292160034
F-1.0264190435409546
F-0.3370518982410431
tp108
a(F-4.635790824890137
F-1.3744072914123535
F-0.3380289077758789
tp109
a(F-6.964111804962158
F-2.064701557159424
F-0.3381606638431549
tp110
a(F-12.037327766418457
F-3.5687954425811768
F-0.2919144630432129
tp111
a(F-12.02944564819336
F-3.5664587020874023
F0.0003581965866032988
tp112
a(F-12.030991554260254
F-3.5669169425964355
F0.29247769713401794
tp113
a(F-12.031553268432617
F-3.5670835971832275
F0.5849416255950928
tp114
a(F-12.024357795715332
F-3.5649502277374268
F0.8775021433830261
tp115
a(F-12.024734497070312
F-3.5650618076324463
F1.1714048385620117
tp116
a(F-12.020563125610352
F-3.5638251304626465
F1.4660520553588867
tp117
a(F-12.033893585205078
F-3.567777395248413
F1.7646712064743042
tp118
a(F-12.040116310119629
F-3.569622278213501
F2.0646817684173584
tp119
a(F-12.033609390258789
F-3.5676932334899902
F2.364799737930298
tp120
a(F-1.348646640777588
F-0.4859853982925415
F-0.3397681713104248
tp121
a(F-1.499954104423523
F-0.5405091047286987
F-0.3389022648334503
tp122
a(F-1.6949948072433472
F-0.6107921004295349
F-0.3393494486808777
tp123
a(F-1.9427632093429565
F-0.7000755667686462
F-0.33939388394355774
tp124
a(F-2.252253293991089
F-0.811600387096405
F-0.3364430367946625
tp125
a(F-2.7200286388397217
F-0.9801635146141052
F-0.33790892362594604
tp126
a(F-3.4107093811035156
F-1.229050636291504
F-0.3383958041667938
tp127
a(F-4.537032127380371
F-1.6349214315414429
F-0.3371463418006897
tp128
a(F-6.841918468475342
F-2.4654881954193115
F-0.3385726511478424
tp129
a(F-12.521535873413086
F-4.512141227722168
F-0.30945661664009094
tp130
a(F-12.515154838562012
F-4.509841442108154
F0.0003797770186793059
tp131
a(F-12.534247398376465
F-4.516721725463867
F0.310531884431839
tp132
a(F-12.536991119384766
F-4.517710208892822
F0.6211560964584351
tp133
a(F-12.536273002624512
F-4.517451286315918
F0.9323335886001587
tp134
a(F-12.522589683532715
F-4.512520790100098
F1.2432036399841309
tp135
a(F-12.514558792114258
F-4.509626865386963
F1.5554524660110474
tp136
a(F-12.534815788269043
F-4.516926288604736
F1.8732346296310425
tp137
a(F-12.525744438171387
F-4.513657569885254
F2.1889841556549072
tp138
a(F-12.519977569580078
F-4.511579513549805
F2.507371187210083
tp139
a(F-1.3167234659194946
F-0.5621570944786072
F-0.33933401107788086
tp140
a(F-1.4633907079696655
F-0.624774694442749
F-0.33822453022003174
tp141
a(F-1.6477673053741455
F-0.7034918069839478
F-0.3374605178833008
tp142
a(F-1.8843414783477783
F-0.8044939041137695
F-0.3367379605770111
tp143
a(F-2.2234246730804443
F-0.9492608308792114
F-0.3397543728351593
tp144
a(F-2.6618359088897705
F-1.136434555053711
F-0.33826398849487305
tp145
a(F-3.3300721645355225
F-1.4217288494110107
F-0.3379731774330139
tp146
a(F-4.460158348083496
F-1.9042037725448608
F-0.3390355408191681
tp147
a(F-6.68414306640625
F-2.853703737258911
F-0.33835145831108093
tp148
a(F-13.091954231262207
F-5.5894317626953125
F-0.33097484707832336
tp149
a(F-13.084779739379883
F-5.586368083953857
F0.00040616936166770756
tp150
a(F-13.085187911987305
F-5.58654260635376
F0.3316165804862976
tp151
a(F-13.077780723571777
F-5.583380222320557
F0.6628111600875854
tp152
a(F-13.097655296325684
F-5.591865539550781
F0.9964253902435303
tp153
a(F-13.082380294799805
F-5.585343837738037
F1.328566312789917
tp154
a(F-13.097495079040527
F-5.591796875
F1.6652436256408691
tp155
a(F-13.080240249633789
F-5.58443021774292
F1.999577522277832
tp156
a(F-13.082562446594238
F-5.585421562194824
F2.338730573654175
tp157
a(F-13.082096099853516
F-5.5852227210998535
F2.6800365447998047
tp158
a(F-1.276709794998169
F-0.634379506111145
F-0.33789435029029846
tp159
a(F-1.4279022216796875
F-0.7095049023628235
F-0.33892154693603516
tp160
a(F-1.6200922727584839
F-0.8050014972686768
F-0.3407396972179413
tp161
a(F-1.8422753810882568
F-0.9154012203216553
F-0.3380982577800751
tp162
a(F-2.155360221862793
F-1.070968747138977
F-0.33823490142822266
tp163
a(F-2.5909948348999023
F-1.287429690361023
F-0.3381403386592865
tp164
a(F-3.2540292739868164
F-1.61688232421875
F-0.3391610383987427
tp165
a(F-4.327535152435303
F-2.1502926349639893
F-0.3378247320652008
tp166
a(F-6.502836227416992
F-3.2311697006225586
F-0.33805006742477417
tp167
a(F-13.034514427185059
F-6.476670742034912
F-0.338408499956131
tp168
a(F-13.73603343963623
F-6.825245380401611
F0.0004378829326014966
tp169
a(F-13.748991966247559
F-6.831684589385986
F0.35783517360687256
tp170
a(F-13.748495101928711
F-6.831438064575195
F0.7155942320823669
tp171
a(F-13.75053596496582
F-6.832451820373535
F1.0743030309677124
tp172
a(F-13.734973907470703
F-6.824719429016113
F1.4324525594711304
tp173
a(F-13.736958503723145
F-6.825705528259277
F1.7936429977416992
tp174
a(F-13.742386817932129
F-6.828402519226074
F2.15744948387146
tp175
a(F-13.748880386352539
F-6.831629276275635
F2.5241236686706543
tp176
a(F-13.731767654418945
F-6.823125839233398
F2.8889880180358887
tp177
a(F-1.0200262069702148
F-0.5824003219604492
F-0.33682698011398315
tp178
a(F-1.1328034400939941
F-0.6467922329902649
F-0.3414221405982971
tp179
a(F-1.2246073484420776
F-0.6992091536521912
F-0.3342278301715851
tp180
a(F-1.378179669380188
F-0.7868937253952026
F-0.3373366892337799
tp181
a(F-1.5489791631698608
F-0.8844144344329834
F-0.33595845103263855
tp182
a(F-1.7778092622756958
F-1.0150686502456665
F-0.336457759141922
tp183
a(F-2.087338447570801
F-1.191799283027649
F-0.3377912938594818
tp184
a(F-2.514293670654297
F-1.4355762004852295
F-0.33837902545928955
tp185
a(F-3.146502733230591
F-1.7965461015701294
F-0.33819690346717834
tp186
a(F-4.2070722579956055
F-2.402095079421997
F-0.33867865800857544
tp187
a(F-6.302332401275635
F-3.5984175205230713
F-0.3378598093986511
tp188
a(F-12.641691207885742
F-7.217976093292236
F-0.3384609818458557
tp189
a(F-14.506816864013672
F-8.282898902893066
F0.0004768983635585755
tp190
a(F-14.496405601501465
F-8.276954650878906
F0.38907158374786377
tp191
a(F-14.502327919006348
F-8.280336380004883
F0.7784064412117004
tp192
a(F-14.516225814819336
F-8.288270950317383
F1.1695475578308105
tp193
a(F-14.508397102355957
F-8.283801078796387
F1.5603744983673096
tp194
a(F-14.521952629089355
F-8.29154109954834
F1.9553632736206055
tp195
a(F-14.509871482849121
F-8.284643173217773
F2.3490867614746094
tp196
a(F-14.516538619995117
F-8.288450241088867
F2.748295307159424
tp197
a(F-14.498323440551758
F-8.27804946899414
F3.1455318927764893
tp198
a(F-0.9175043702125549
F-0.5964639186859131
F-0.34157225489616394
tp199
a(F-1.0031158924102783
F-0.6521194577217102
F-0.34309884905815125
tp200
a(F-1.0856486558914185
F-0.7057735323905945
F-0.3389214873313904
tp201
a(F-1.1941756010055542
F-0.7763261795043945
F-0.3375876843929291
tp202
a(F-1.3335143327713013
F-0.8669094443321228
F-0.33808669447898865
tp203
a(F-1.5064014196395874
F-0.9793023467063904
F-0.3384179472923279
tp204
a(F-1.730769157409668
F-1.1251623630523682
F-0.3392791450023651
tp205
a(F-2.022188186645508
F-1.3146120309829712
F-0.33896103501319885
tp206
a(F-2.422959089279175
F-1.5751508474349976
F-0.3377584218978882
tp207
a(F-3.0298120975494385
F-1.9696621894836426
F-0.3373104929924011
tp208
a(F-4.058066368103027
F-2.6381237506866455
F-0.33837607502937317
tp209
a(F-6.087560653686523
F-3.9574856758117676
F-0.33802682161331177
tp210
a(F-12.187453269958496
F-7.922988414764404
F-0.33797845244407654
tp211
a(F-15.41430950164795
F-10.020748138427734
F0.0005248683737590909
tp212
a(F-15.418696403503418
F-10.023599624633789
F0.4286368191242218
tp213
a(F-15.423676490783691
F-10.026837348937988
F0.8574903607368469
tp214
a(F-15.430327415466309
F-10.031161308288574
F1.2876918315887451
tp215
a(F-15.42339038848877
F-10.026651382446289
F1.7181532382965088
tp216
a(F-15.426536560058594
F-10.02869701385498
F2.151510715484619
tp217
a(F-15.417524337768555
F-10.02283763885498
F2.5853703022003174
tp218
a(F-15.42752742767334
F-10.029340744018555
F3.02530574798584
tp219
a(F-15.416013717651367
F-10.021855354309082
F3.4643442630767822
tp220
a(F-0.7015854120254517
F-0.5159389972686768
F-0.3401535153388977
tp221
a(F-0.7456481456756592
F-0.5483422875404358
F-0.33690711855888367
tp222
a(F-0.8017698526382446
F-0.589613676071167
F-0.3362475037574768
tp223
a(F-0.8745898604393005
F-0.6431647539138794
F-0.33884966373443604
tp224
a(F-0.9478025436401367
F-0.6970046758651733
F-0.33737602829933167
tp225
a(F-1.0501365661621094
F-0.7722600698471069
F-0.34118014574050903
tp226
a(F-1.1460639238357544
F-0.8428040742874146
F-0.33717504143714905
tp227
a(F-1.275220274925232
F-0.9377844333648682
F-0.33646801114082336
tp228
a(F-1.438981294631958
F-1.0582126379013062
F-0.33643099665641785
tp229
a(F-1.668364405632019
F-1.2268986701965332
F-0.3403589129447937
tp230
a(F-1.9480289220809937
F-1.4325612783432007
F-0.33982226252555847
tp231
a(F-2.3368656635284424
F-1.7185078859329224
F-0.339017391204834
tp232
a(F-2.916778564453125
F-2.144970178604126
F-0.33794480562210083
tp233
a(F-3.9031407833099365
F-2.870331048965454
F-0.33870601654052734
tp234
a(F-5.854711532592773
F-4.305497169494629
F-0.33833080530166626
tp235
a(F-11.715686798095703
F-8.6156005859375
F-0.33812087774276733
tp236
a(F-16.552248001098633
F-12.172359466552734
F0.0005865587154403329
tp237
a(F-16.54706573486328
F-12.168548583984375
F0.47873038053512573
tp238
a(F-16.544530868530273
F-12.1666841506958
F0.9572468400001526
tp239
a(F-16.547893524169922
F-12.169157981872559
F1.4371684789657593
tp240
a(F-16.549375534057617
F-12.170247077941895
F1.9186326265335083
tp241
a(F-16.55337905883789
F-12.173192024230957
F2.402646780014038
tp242
a(F-16.55813217163086
F-12.176687240600586
F2.8896660804748535
tp243
a(F-16.55290412902832
F-12.172842025756836
F3.378122091293335
tp244
a(F-16.560152053833008
F-12.178173065185547
F3.872946262359619
tp245
a(F-0.6654029488563538
F-0.5511178970336914
F-0.3374691307544708
tp246
a(F-0.7147805690765381
F-0.5920147895812988
F-0.3378344178199768
tp247
a(F-0.7727662920951843
F-0.6400412321090698
F-0.33900994062423706
tp248
a(F-0.8231302499771118
F-0.681755006313324
F-0.3336000442504883
tp249
a(F-0.9077698588371277
F-0.7518575191497803
F-0.33800801634788513
tp250
a(F-0.9939228296279907
F-0.8232134580612183
F-0.33778902888298035
tp251
a(F-1.1098606586456299
F-0.9192385673522949
F-0.34156233072280884
tp252
a(F-1.2327756881713867
F-1.0210424661636353
F-0.34024950861930847
tp253
a(F-1.3873499631881714
F-1.1490682363510132
F-0.3392983675003052
tp254
a(F-1.592133641242981
F-1.3186795711517334
F-0.33976656198501587
tp255
a(F-1.8506478071212769
F-1.5327931642532349
F-0.337703138589859
tp256
a(F-2.2245912551879883
F-1.8425105810165405
F-0.3375929594039917
tp257
a(F-2.7928335666656494
F-2.3131556510925293
F-0.3384872376918793
tp258
a(F-3.7212765216827393
F-3.0821356773376465
F-0.3377968370914459
tp259
a(F-5.596981048583984
F-4.635681629180908
F-0.3383333384990692
tp260
a(F-11.203927040100098
F-9.279617309570312
F-0.3382434844970703
tp261
a(F-17.975265502929688
F-14.887957572937012
F0.0006663229432888329
tp262
a(F-17.984153747558594
F-14.895318031311035
F0.5442706942558289
tp263
a(F-17.984779357910156
F-14.89583683013916
F1.0885028839111328
tp264
a(F-17.986650466918945
F-14.89738655090332
F1.634068250656128
tp265
a(F-17.980844497680664
F-14.892577171325684
F2.180596113204956
tp266
a(F-17.987497329711914
F-14.898087501525879
F2.7310454845428467
tp267
a(F-17.988170623779297
F-14.898646354675293
F3.283811569213867
tp268
a(F-17.982311248779297
F-14.893793106079102
F3.8388538360595703
tp269
a(F-17.980867385864258
F-14.892596244812012
F4.398885726928711
tp270
a(F-0.6408522129058838
F-0.5962652564048767
F-0.34190016984939575
tp271
a(F-0.6891356110572815
F-0.6411893963813782
F-0.3426320254802704
tp272
a(F-0.7346767783164978
F-0.6835620403289795
F-0.3390413522720337
tp273
a(F-0.8024724125862122
F-0.7466408014297485
F-0.3421210050582886
tp274
a(F-0.8668346405029297
F-0.8065250515937805
F-0.3395311236381531
tp275
a(F-0.9442353248596191
F-0.8785406351089478
F-0.33757105469703674
tp276
a(F-1.0430374145507812
F-0.9704686403274536
F-0.33767077326774597
tp277
a(F-1.1665514707565308
F-1.085389256477356
F-0.3386955261230469
tp278
a(F-1.3104465007781982
F-1.2192728519439697
F-0.3371375501155853
tp279
a(F-1.4973053932189941
F-1.393131136894226
F-0.3361271619796753
tp280
a(F-1.7684459686279297
F-1.6454071998596191
F-0.3394651412963867
tp281
a(F-2.120239496231079
F-1.9727250337600708
F-0.3384700119495392
tp282
a(F-2.6417236328125
F-2.4579269886016846
F-0.3368035554885864
tp283
a(F-3.5510754585266113
F-3.304011106491089
F-0.3390904664993286
tp284
a(F-5.32228946685791
F-4.951993942260742
F-0.3384398818016052
tp285
a(F-10.657646179199219
F-9.916146278381348
F-0.33846405148506165
tp286
a(F-19.883281707763672
F-18.49991226196289
F0.0007753352983854711
tp287
a(F-19.886085510253906
F-18.502521514892578
F0.6330912113189697
tp288
a(F-19.876672744750977
F-18.493764877319336
F1.2654943466186523
tp289
a(F-19.88909912109375
F-18.505325317382812
F1.900759220123291
tp290
a(F-19.881677627563477
F-18.49842071533203
F2.536356210708618
tp291
a(F-19.882165908813477
F-18.49887466430664
F3.175513505935669
tp292
a(F-19.874067306518555
F-18.4913387298584
F3.816541910171509
tp293
a(F-19.874914169311523
F-18.492128372192383
F4.463272571563721
tp294
a(F-19.876672744750977
F-18.493762969970703
F5.115261077880859
tp295
a(F-0.5903608202934265
F-0.6164543628692627
F-0.3333870768547058
tp296
a(F-0.645260751247406
F-0.6737807989120483
F-0.3395848274230957
tp297
a(F-0.6971623301506042
F-0.7279764413833618
F-0.3405493497848511
tp298
a(F-0.751163899898529
F-0.7843648195266724
F-0.3389800488948822
tp299
a(F-0.7999324202537537
F-0.8352888226509094
F-0.3316549062728882
tp300
a(F-0.8934221863746643
F-0.9329107999801636
F-0.33808934688568115
tp301
a(F-0.9878841638565063
F-1.0315479040145874
F-0.3385239541530609
tp302
a(F-1.0997023582458496
F-1.1483083963394165
F-0.3379640281200409
tp303
a(F-1.2461291551589966
F-1.301207184791565
F-0.3393443822860718
tp304
a(F-1.4244272708892822
F-1.4873859882354736
F-0.3384724259376526
tp305
a(F-1.665710687637329
F-1.739333987236023
F-0.3384486436843872
tp306
a(F-2.009676933288574
F-2.0985031127929688
F-0.33958718180656433
tp307
a(F-2.5024237632751465
F-2.6130292415618896
F-0.33770695328712463
tp308
a(F-3.3514211177825928
F-3.49955153465271
F-0.33874621987342834
tp309
a(F-5.025723934173584
F-5.247857570648193
F-0.3382762372493744
tp310
a(F-10.062732696533203
F-10.507497787475586
F-0.33826491236686707
tp311
a(F-52.0070686340332
F-54.30574417114258
F0.0021466126199811697
tp312
a(F-52.002769470214844
F-54.30125427246094
F1.7524000406265259
tp313
a(F-52.00617599487305
F-54.304813385009766
F3.504783868789673
tp314
a(F-52.00918197631836
F-54.30794906616211
F5.261163234710693
tp315
a(F-52.008575439453125
F-54.307315826416016
F7.022988319396973
tp316
a(F-52.00404739379883
F-54.302589416503906
F8.791788101196289
tp317
a(F-52.00752639770508
F-54.30622100830078
F10.571564674377441
tp318
a(F-52.001277923583984
F-54.2996940612793
F12.360952377319336
tp319
a(F-52.00372314453125
F-54.302249908447266
F14.166035652160645
tp320
a(F-0.5625020861625671
F-0.6595696806907654
F-0.33858588337898254
tp321
a(F-0.6002504229545593
F-0.7038320302963257
F-0.3367123305797577
tp322
a(F-0.6484010219573975
F-0.7602916955947876
F-0.3376007080078125
tp323
a(F-0.6999416351318359
F-0.8207262754440308
F-0.33667799830436707
tp324
a(F-0.7683547735214233
F-0.9009450674057007
F-0.3395536541938782
tp325
a(F-0.8338028788566589
F-0.9776871800422668
F-0.3363191783428192
tp326
a(F-0.9271200895309448
F-1.087107539176941
F-0.33863580226898193
tp327
a(F-1.0351663827896118
F-1.2137987613677979
F-0.3390931487083435
tp328
a(F-1.1635336875915527
F-1.3643176555633545
F-0.337730348110199
tp329
a(F-1.3330985307693481
F-1.563143253326416
F-0.3376438021659851
tp330
a(F-1.552083134651184
F-1.8199167251586914
F-0.3361411392688751
tp331
a(F-1.874977946281433
F-2.1985316276550293
F-0.33770284056663513
tp332
a(F-2.3531877994537354
F-2.759263277053833
F-0.33849263191223145
tp333
a(F-3.1377527713775635
F-3.679215669631958
F-0.33804747462272644
tp334
a(F-4.717991352081299
F-5.532146453857422
F-0.3384881317615509
tp335
a(F-9.444669723510742
F-11.074479103088379
F-0.33840852975845337
tp336
a(F-55.67210006713867
F-65.27909088134766
F0.0024493022356182337
tp337
a(F-55.67148971557617
F-65.27838134765625
F1.9996461868286133
tp338
a(F-55.675296783447266
F-65.28284454345703
F3.9992847442626953
tp339
a(F-55.673789978027344
F-65.28107452392578
F6.0029683113098145
tp340
a(F-55.67586898803711
F-65.28351593017578
F8.01359748840332
tp341
a(F-55.687767028808594
F-65.2974624633789
F10.034907341003418
tp342
a(F-55.671607971191406
F-65.27851867675781
F12.062028884887695
tp343
a(F-55.67829895019531
F-65.28636169433594
F14.107089042663574
tp344
a(F-55.67947769165039
F-65.2877426147461
F16.166744232177734
tp345
a(F-0.527389645576477
F-0.6959229111671448
F-0.34105682373046875
tp346
a(F-0.5669538974761963
F-0.7481303215026855
F-0.3416840434074402
tp347
a(F-0.6096800565719604
F-0.8045101761817932
F-0.3410452902317047
tp348
a(F-0.6530819535255432
F-0.8617815971374512
F-0.33749786019325256
tp349
a(F-0.7163718342781067
F-0.9452964663505554
F-0.34012266993522644
tp350
a(F-0.7882609367370605
F-1.0401585102081299
F-0.34159278869628906
tp351
a(F-0.8617907762527466
F-1.1371856927871704
F-0.3381809592247009
tp352
a(F-0.9574779272079468
F-1.2634507417678833
F-0.3369675278663635
tp353
a(F-1.0769177675247192
F-1.4210588932037354
F-0.3358335494995117
tp354
a(F-1.2443095445632935
F-1.6419427394866943
F-0.3385910093784332
tp355
a(F-1.4538630247116089
F-1.9184613227844238
F-0.33828336000442505
tp356
a(F-1.7563865184783936
F-2.317659616470337
F-0.33986708521842957
tp357
a(F-2.189633846282959
F-2.8893558979034424
F-0.33838769793510437
tp358
a(F-2.9262917041778564
F-3.8614211082458496
F-0.3387092351913452
tp359
a(F-4.3889007568359375
F-5.791423320770264
F-0.3382926285266876
tp360
a(F-8.786574363708496
F-11.594422340393066
F-0.3382396697998047
tp361
a(F-60.587825775146484
F-79.94934844970703
F0.0028637864161282778
tp362
a(F-60.578800201416016
F-79.93743133544922
F2.337714195251465
tp363
a(F-60.57024002075195
F-79.92613983154297
F4.674439430236816
tp364
a(F-60.57140350341797
F-79.92767333984375
F7.016706943511963
tp365
a(F-60.57730484008789
F-79.93546295166016
F9.367439270019531
tp366
a(F-60.576786041259766
F-79.93477630615234
F11.727629661560059
tp367
a(F-60.57148361206055
F-79.92778015136719
F14.099550247192383
tp368
a(F-60.580013275146484
F-79.93904113769531
F16.490402221679688
tp369
a(F-60.57878112792969
F-79.93740844726562
F18.897239685058594
tp370
a(F-0.48937827348709106
F-0.7295608520507812
F-0.343130886554718
tp371
a(F-0.5135624408721924
F-0.7656143307685852
F-0.3355754613876343
tp372
a(F-0.557268500328064
F-0.8307709693908691
F-0.33798274397850037
tp373
a(F-0.5977314710617065
F-0.891092836856842
F-0.334911048412323
tp374
a(F-0.6654042601585388
F-0.9919788241386414
F-0.3425331711769104
tp375
a(F-0.7223315834999084
F-1.0768455266952515
F-0.33938705921173096
tp376
a(F-0.7985104322433472
F-1.1904122829437256
F-0.33974096179008484
tp377
a(F-0.8867293000221252
F-1.3219282627105713
F-0.3383532464504242
tp378
a(F-1.003596305847168
F-1.4961525201797485
F-0.33932870626449585
tp379
a(F-1.1440707445144653
F-1.7055706977844238
F-0.3375357985496521
tp380
a(F-1.3357900381088257
F-1.9913840293884277
F-0.3369886875152588
tp381
a(F-1.612625002861023
F-2.4040870666503906
F-0.3383314311504364
tp382
a(F-2.0213372707366943
F-3.0133917331695557
F-0.3386895954608917
tp383
a(F-2.6924383640289307
F-4.013863563537598
F-0.3378898799419403
tp384
a(F-4.041328430175781
F-6.024776458740234
F-0.3377387523651123
tp385
a(F-8.101879119873047
F-12.07820987701416
F-0.3381510376930237
tp386
a(F-67.50304412841797
F-100.63294982910156
F0.0034593825694173574
tp387
a(F-67.50135803222656
F-100.63043212890625
F2.8242506980895996
tp388
a(F-67.5098876953125
F-100.64314270019531
F5.648818016052246
tp389
a(F-67.5015640258789
F-100.63072967529297
F8.478118896484375
tp390
a(F-67.50081634521484
F-100.62963104248047
F11.31722640991211
tp391
a(F-67.50421142578125
F-100.63468933105469
F14.169511795043945
tp392
a(F-67.50990295410156
F-100.64317321777344
F17.038230895996094
tp393
a(F-0.43990007042884827
F-0.7453034520149231
F-0.33803313970565796
tp394
a(F-0.47472909092903137
F-0.8043127059936523
F-0.33996400237083435
tp395
a(F-0.5078069567680359
F-0.8603550791740417
F-0.33753499388694763
tp396
a(F-0.5477158427238464
F-0.9279710054397583
F-0.33633244037628174
tp397
a(F-0.5948391556739807
F-1.0078099966049194
F-0.3355882465839386
tp398
a(F-0.662102997303009
F-1.1217721700668335
F-0.34093716740608215
tp399
a(F-0.7202876210212708
F-1.2203518152236938
F-0.3358639180660248
tp400
a(F-0.8036679029464722
F-1.361619472503662
F-0.3360826075077057
tp401
a(F-0.9117888808250427
F-1.5448039770126343
F-0.3378671407699585
tp402
a(F-1.0468602180480957
F-1.7736494541168213
F-0.33848991990089417
tp403
a(F-1.2230610847473145
F-2.072178840637207
F-0.3381546437740326
tp404
a(F-1.4686081409454346
F-2.4881985187530518
F-0.33767977356910706
tp405
a(F-1.8387149572372437
F-3.1152544021606445
F-0.3376506268978119
tp406
a(F-2.4590067863464355
F-4.166187286376953
F-0.33820438385009766
tp407
a(F-3.6966805458068848
F-6.263124465942383
F-0.3385780453681946
tp408
a(F-7.396117210388184
F-12.53091812133789
F-0.33831313252449036
tp409
a(F-0.39386677742004395
F-0.7648180723190308
F-0.33601611852645874
tp410
a(F-0.42736902832984924
F-0.8298733830451965
F-0.339778333902359
tp411
a(F-0.45628517866134644
F-0.8860233426094055
F-0.3367147147655487
tp412
a(F-0.49788790941238403
F-0.9668083190917969
F-0.3394302725791931
tp413
a(F-0.5418126583099365
F-1.0521022081375122
F-0.33936095237731934
tp414
a(F-0.5985137820243835
F-1.162205457687378
F-0.3421593904495239
tp415
a(F-0.6499208807945251
F-1.2620289325714111
F-0.33645227551460266
tp416
a(F-0.7246140837669373
F-1.4070695638656616
F-0.336419939994812
tp417
a(F-0.8211963772773743
F-1.594614863395691
F-0.3378346860408783
tp418
a(F-0.9419015049934387
F-1.8290023803710938
F-0.3381178379058838
tp419
a(F-1.1102111339569092
F-2.1558291912078857
F-0.34078332781791687
tp420
a(F-1.3244644403457642
F-2.5718705654144287
F-0.33809980750083923
tp421
a(F-1.6596320867538452
F-3.222705364227295
F-0.33835336565971375
tp422
a(F-2.211697578430176
F-4.294716835021973
F-0.33771535754203796
tp423
a(F-3.3298180103302
F-6.465904712677002
F-0.33858904242515564
tp424
a(F-6.6548333168029785
F-12.92248249053955
F-0.33795416355133057
tp425
a(F-0.35497474670410156
F-0.7993558645248413
F-0.3416218161582947
tp426
a(F-0.37889567017555237
F-0.8532226085662842
F-0.3398205637931824
tp427
a(F-0.41062867641448975
F-0.9246811270713806
F-0.3418317139148712
tp428
a(F-0.4418230652809143
F-0.9949266910552979
F-0.3397854268550873
tp429
a(F-0.4784483015537262
F-1.077401876449585
F-0.33805322647094727
tp430
a(F-0.5189138650894165
F-1.168524980545044
F-0.3346470296382904
tp431
a(F-0.5732201337814331
F-1.2908154726028442
F-0.3347509205341339
tp432
a(F-0.6423037648200989
F-1.4463825225830078
F-0.3363974988460541
tp433
a(F-0.724245548248291
F-1.6309045553207397
F-0.3361092209815979
tp434
a(F-0.8329055905342102
F-1.8755924701690674
F-0.33728399872779846
tp435
a(F-0.973227322101593
F-2.1915783882141113
F-0.33699578046798706
tp436
a(F-1.1807429790496826
F-2.6588759422302246
F-0.3400144577026367
tp437
a(F-1.4659794569015503
F-3.3011903762817383
F-0.33715060353279114
tp438
a(F-1.9679502248764038
F-4.4315619468688965
F-0.3389819264411926
tp439
a(F-2.946160316467285
F-6.6343607902526855
F-0.3379451036453247
tp440
a(F-5.908425331115723
F-13.304986953735352
F-0.3384774625301361
tp441
a(F-0.3082183003425598
F-0.8181752562522888
F-0.3414950668811798
tp442
a(F-0.3316439092159271
F-0.8803592920303345
F-0.34243637323379517
tp443
a(F-0.34885168075561523
F-0.9260377883911133
F-0.33433493971824646
tp444
a(F-0.38798224925994873
F-1.0299111604690552
F-0.3435153067111969
tp445
a(F-0.4164634644985199
F-1.105515480041504
F-0.33876994252204895
tp446
a(F-0.4579962193965912
F-1.2157654762268066
F-0.3400411307811737
tp447
a(F-0.5036571621894836
F-1.3369739055633545
F-0.33862048387527466
tp448
a(F-0.5646113753318787
F-1.4987788200378418
F-0.34043940901756287
tp449
a(F-0.6369034051895142
F-1.6906802654266357
F-0.3402875065803528
tp450
a(F-0.7257242798805237
F-1.9264581203460693
F-0.3383370041847229
tp451
a(F-0.8451777100563049
F-2.243551015853882
F-0.3369271755218506
tp452
a(F-1.019365906715393
F-2.7059390544891357
F-0.3379480540752411
tp453
a(F-1.2732945680618286
F-3.3800008296966553
F-0.3371342122554779
tp454
a(F-1.7034629583358765
F-4.5218963623046875
F-0.33781036734580994
tp455
a(F-2.5625579357147217
F-6.802391529083252
F-0.33840858936309814
tp456
a(F-5.125428199768066
F-13.605610847473145
F-0.3380383551120758
tp457
a(F-0.2555965483188629
F-0.8186449408531189
F-0.334977388381958
tp458
a(F-0.27714094519615173
F-0.8876490592956543
F-0.33848780393600464
tp459
a(F-0.29729199409484863
F-0.9521903991699219
F-0.3370223045349121
tp460
a(F-0.3204777240753174
F-1.0264514684677124
F-0.3356344997882843
tp461
a(F-0.35414743423461914
F-1.1342915296554565
F-0.340758353471756
tp462
a(F-0.3841404616832733
F-1.2303556203842163
F-0.3373604118824005
tp463
a(F-0.42627039551734924
F-1.3652926683425903
F-0.33899858593940735
tp464
a(F-0.47729310393333435
F-1.528712272644043
F-0.3404158651828766
tp465
a(F-0.5368783473968506
F-1.7195565700531006
F-0.33929917216300964
tp466
a(F-0.6145902276039124
F-1.9684584140777588
F-0.33892059326171875
tp467
a(F-0.7157902717590332
F-2.2925899028778076
F-0.3375268280506134
tp468
a(F-0.8609248399734497
F-2.7574384212493896
F-0.3376133441925049
tp469
a(F-1.0799342393875122
F-3.4588992595672607
F-0.33822503685951233
tp470
a(F-1.4429895877838135
F-4.621721267700195
F-0.33848387002944946
tp471
a(F-2.1656062602996826
F-6.93617582321167
F-0.3382841646671295
tp472
a(F-4.3345232009887695
F-13.882955551147461
F-0.3381517827510834
tp473
a(F-0.2100992053747177
F-0.8403739929199219
F-0.33834460377693176
tp474
a(F-0.22493775188922882
F-0.8997265696525574
F-0.3375817835330963
tp475
a(F-0.24369563162326813
F-0.9747560620307922
F-0.33946695923805237
tp476
a(F-0.2625272274017334
F-1.050080418586731
F-0.33784493803977966
tp477
a(F-0.2828579843044281
F-1.1314013004302979
F-0.3344299793243408
tp478
a(F-0.31395676732063293
F-1.2557929754257202
F-0.338803768157959
tp479
a(F-0.34405866265296936
F-1.376197338104248
F-0.33621686697006226
tp480
a(F-0.3901601731777191
F-1.560598373413086
F-0.3419337272644043
tp481
a(F-0.4372233748435974
F-1.7488460540771484
F-0.33953505754470825
tp482
a(F-0.5002102851867676
F-2.0007870197296143
F-0.33895283937454224
tp483
a(F-0.586103081703186
F-2.344348669052124
F-0.33960244059562683
tp484
a(F-0.6990916728973389
F-2.796290636062622
F-0.33687034249305725
tp485
a(F-0.879245400428772
F-3.5168862342834473
F-0.33837080001831055
tp486
a(F-1.1751788854599
F-4.700587749481201
F-0.3387295603752136
tp487
a(F-1.763764500617981
F-7.054866313934326
F-0.3385455310344696
tp488
a(F-3.531035900115967
F-14.123760223388672
F-0.338490754365921
tp489
a(F-19.711936950683594
F-78.8456039428711
F0.002320193685591221
tp490
a(F-19.712371826171875
F-78.84735107421875
F1.894302487373352
tp491
a(F-19.71152114868164
F-78.84394836425781
F3.788175344467163
tp492
a(F-19.713642120361328
F-78.85243225097656
F5.686856746673584
tp493
a(F-19.712688446044922
F-78.8486099243164
F7.590956687927246
tp494
a(F-19.713212966918945
F-78.8507080078125
F9.503883361816406
tp495
a(F-19.713769912719727
F-78.85294342041016
F11.427372932434082
tp496
a(F-19.715930938720703
F-78.86157989501953
F13.364688873291016
tp497
a(F-19.71131134033203
F-78.84310150146484
F15.312040328979492
tp498
a(F-0.16181586682796478
F-0.8536208868026733
F-0.3393537402153015
tp499
a(F-0.17439432442188263
F-0.9199754595756531
F-0.34083619713783264
tp500
a(F-0.18720643222332
F-0.9875626564025879
F-0.3395996391773224
tp501
a(F-0.20381292700767517
F-1.0751663446426392
F-0.34156352281570435
tp502
a(F-0.22047150135040283
F-1.1630445718765259
F-0.3394578993320465
tp503
a(F-0.24108920991420746
F-1.271808385848999
F-0.3388073742389679
tp504
a(F-0.2654384672641754
F-1.4002571105957031
F-0.3377906382083893
tp505
a(F-0.29503586888313293
F-1.5563911199569702
F-0.3367212414741516
tp506
a(F-0.3368501663208008
F-1.7769724130630493
F-0.34065496921539307
tp507
a(F-0.3824194669723511
F-2.017362356185913
F-0.33746081590652466
tp508
a(F-0.4480487108230591
F-2.3635735511779785
F-0.33807945251464844
tp509
a(F-0.5386261343955994
F-2.841393232345581
F-0.3379969894886017
tp510
a(F-0.6745061874389648
F-3.5581958293914795
F-0.33803790807724
tp511
a(F-0.9014934301376343
F-4.755612850189209
F-0.33838286995887756
tp512
a(F-1.3544716835021973
F-7.145191192626953
F-0.3385658264160156
tp513
a(F-2.709109306335449
F-14.291257858276367
F-0.3381955623626709
tp514
a(F-12.197044372558594
F-64.34259033203125
F0.0018695894395932555
tp515
a(F-12.198405265808105
F-64.34976959228516
F1.5265470743179321
tp516
a(F-12.19923210144043
F-64.3541259765625
F3.053086757659912
tp517
a(F-12.196931838989258
F-64.34199523925781
F4.581974983215332
tp518
a(F-12.197709083557129
F-64.3460922241211
F6.116818904876709
tp519
a(F-12.196678161621094
F-64.34065246582031
F7.657411098480225
tp520
a(F-12.194912910461426
F-64.33134460449219
F9.20560073852539
tp521
a(F-12.193794250488281
F-64.32544708251953
F10.76408576965332
tp522
a(F-12.198169708251953
F-64.34852600097656
F12.339822769165039
tp523
a(F-0.1103549674153328
F-0.8460890054702759
F-0.333273321390152
tp524
a(F-0.12116249650716782
F-0.9289501309394836
F-0.3410033881664276
tp525
a(F-0.12696334719657898
F-0.9734250903129578
F-0.3316667377948761
tp526
a(F-0.13905197381973267
F-1.0661083459854126
F-0.33557841181755066
tp527
a(F-0.1531771421432495
F-1.1744056940078735
F-0.33962881565093994
tp528
a(F-0.1662215143442154
F-1.2744165658950806
F-0.33638715744018555
tp529
a(F-0.18561699986457825
F-1.4231213331222534
F-0.34015634655952454
tp530
a(F-0.20662547647953033
F-1.5841927528381348
F-0.339591383934021
tp531
a(F-0.23249590396881104
F-1.7825407981872559
F-0.33858707547187805
tp532
a(F-0.26640570163726807
F-2.0425264835357666
F-0.3385353088378906
tp533
a(F-0.3106619715690613
F-2.381838083267212
F-0.3375660181045532
tp534
a(F-0.37348994612693787
F-2.8635387420654297
F-0.33750590682029724
tp535
a(F-0.4702503979206085
F-3.6053991317749023
F-0.33937960863113403
tp536
a(F-0.6255538463592529
F-4.796106815338135
F-0.3381330370903015
tp537
a(F-0.938816487789154
F-7.197884559631348
F-0.3379333019256592
tp538
a(F-1.8810946941375732
F-14.422310829162598
F-0.33816537261009216
tp539
a(F-8.489367485046387
F-65.0877914428711
F0.0018738900544121861
tp540
a(F-8.489721298217773
F-65.09049987792969
F1.529951572418213
tp541
a(F-8.489946365356445
F-65.09222412109375
F3.05976939201355
tp542
a(F-8.490044593811035
F-65.09297943115234
F4.592923641204834
tp543
a(F-8.490645408630371
F-65.09758758544922
F6.1314778327941895
tp544
a(F-8.48903751373291
F-65.08525848388672
F7.674957752227783
tp545
a(F-8.488792419433594
F-65.08338165283203
F9.227763175964355
tp546
a(F-8.489090919494629
F-65.08566284179688
F10.791369438171387
tp547
a(F-8.48866081237793
F-65.08236694335938
F12.366037368774414
tp548
a(F-0.062136560678482056
F-0.8608742356300354
F-0.3371238708496094
tp549
a(F-0.06667615473270416
F-0.9237682223320007
F-0.3371278643608093
tp550
a(F-0.07177706807851791
F-0.9944391250610352
F-0.3368549346923828
tp551
a(F-0.07863659411668777
F-1.0894747972488403
F-0.34093785285949707
tp552
a(F-0.08594748377799988
F-1.1907639503479004
F-0.3423555791378021
tp553
a(F-0.09252817183732986
F-1.2819364070892334
F-0.3364029824733734
tp554
a(F-0.10223493725061417
F-1.416419267654419
F-0.33658427000045776
tp555
a(F-0.1148562878370285
F-1.5912823677062988
F-0.3391261100769043
tp556
a(F-0.12898802757263184
F-1.7870714664459229
F-0.3374723196029663
tp557
a(F-0.14798085391521454
F-2.050208330154419
F-0.3378311097621918
tp558
a(F-0.1729516237974167
F-2.396167278289795
F-0.3376206159591675
tp559
a(F-0.208051860332489
F-2.882465362548828
F-0.3377596437931061
tp560
a(F-0.2605850398540497
F-3.6102890968322754
F-0.3378622829914093
tp561
a(F-0.3486787676811218
F-4.8307881355285645
F-0.3385961949825287
tp562
a(F-0.5234332084655762
F-7.2519330978393555
F-0.33848950266838074
tp563
a(F-1.0477728843688965
F-14.516424179077148
F-0.33839139342308044
tp564
a(F-3.6937143802642822
F-51.17475891113281
F0.0014647574862465262
tp565
a(F-3.6933438777923584
F-51.16962432861328
F1.1957423686981201
tp566
a(F-3.6936771869659424
F-51.17424392700195
F2.3915328979492188
tp567
a(F-3.6940624713897705
F-51.17958068847656
F3.5901873111724854
tp568
a(F-3.6933465003967285
F-51.16966247558594
F4.791573524475098
tp569
a(F-3.6937310695648193
F-51.17498779296875
F5.999518871307373
tp570
a(F-3.693835735321045
F-51.17644119262695
F7.213761329650879
tp571
a(F-3.6942358016967773
F-51.181983947753906
F8.436720848083496
tp572
a(F-3.693765163421631
F-51.17546463012695
F9.667057991027832
tp573
a(F-0.012463404797017574
F-0.8648755550384521
F-0.3378470838069916
tp574
a(F-0.013244708068668842
F-0.9190926551818848
F-0.33458593487739563
tp575
a(F-0.014379706233739853
F-0.9978538751602173
F-0.3371696174144745
tp576
a(F-0.015486493706703186
F-1.0746573209762573
F-0.33546313643455505
tp577
a(F-0.0169877577573061
F-1.1788349151611328
F-0.3380815386772156
tp578
a(F-0.018546273931860924
F-1.2869852781295776
F-0.33688655495643616
tp579
a(F-0.020540760830044746
F-1.4253891706466675
F-0.3378719985485077
tp580
a(F-0.022946417331695557
F-1.5923253297805786
F-0.33850300312042236
tp581
a(F-0.026000572368502617
F-1.8042629957199097
F-0.33986997604370117
tp582
a(F-0.02968529798090458
F-2.059957981109619
F-0.3385920226573944
tp583
a(F-0.03465561196208
F-2.4048638343811035
F-0.3380018174648285
tp584
a(F-0.0415857769548893
F-2.885770082473755
F-0.3373045027256012
tp585
a(F-0.05219411477446556
F-3.6219165325164795
F-0.33810603618621826
tp586
a(F-0.06971261650323868
F-4.837581157684326
F-0.33822765946388245
tp587
a(F-0.10471007972955704
F-7.266167163848877
F-0.33830901980400085
tp588
a(F-0.2096245437860489
F-14.546518325805664
F-0.3382481634616852
tp589
a(F-0.6095948815345764
F-42.30173873901367
F0.001207771711051464
tp590
a(F-0.6097704768180847
F-42.31392288208008
F0.9863373041152954
tp591
a(F-0.6100482940673828
F-42.33320236206055
F1.9734348058700562
tp592
a(F-0.6099159717559814
F-42.32402038574219
F2.9615838527679443
tp593
a(F-0.6097648739814758
F-42.313533782958984
F3.952407121658325
tp594
a(F-0.6096880435943604
F-42.308204650878906
F4.947662353515625
tp595
a(F-0.6097601652145386
F-42.31320571899414
F5.949553966522217
tp596
a(F-0.6097419857978821
F-42.311946868896484
F6.957229137420654
tp597
a(F-0.609776496887207
F-42.3143424987793
F7.9732770919799805
tp598
a(F0.037323664873838425
F-0.8627520203590393
F-0.3372977674007416
tp599
a(F0.0406525656580925
F-0.9397009015083313
F-0.3423725664615631
tp600
a(F0.04342953488230705
F-1.0038917064666748
F-0.3394917845726013
tp601
a(F0.04732804745435715
F-1.0940074920654297
F-0.3417873680591583
tp602
a(F0.05108441412448883
F-1.1808373928070068
F-0.3389374315738678
tp603
a(F0.05562951788306236
F-1.2858994007110596
F-0.33688217401504517
tp604
a(F0.061912376433610916
F-1.431130290031433
F-0.3395148813724518
tp605
a(F0.06895972043275833
F-1.5940325260162354
F-0.3391476571559906
tp606
a(F0.07782343775033951
F-1.79892098903656
F-0.3391454517841339
tp607
a(F0.08890430629253387
F-2.0550599098205566
F-0.33806777000427246
tp608
a(F0.10410226136445999
F-2.4063668251037598
F-0.33849427103996277
tp609
a(F0.1251591593027115
F-2.893105983734131
F-0.3384431302547455
tp610
a(F0.15698771178722382
F-3.628836154937744
F-0.3390336036682129
tp611
a(F0.20921678841114044
F-4.836133003234863
F-0.3384075164794922
tp612
a(F0.3146766126155853
F-7.273880481719971
F-0.33894971013069153
tp613
a(F0.628867506980896
F-14.53653335571289
F-0.3382970094680786
tp614
a(F1.5606944561004639
F-36.07609939575195
F0.0010308778146281838
tp615
a(F1.5610650777816772
F-36.08466720581055
F0.84183269739151
tp616
a(F1.561188817024231
F-36.087528228759766
F1.6836806535720825
tp617
a(F1.5612834692001343
F-36.08971405029297
F2.5274438858032227
tp618
a(F1.5608702898025513
F-36.080162048339844
F3.372964859008789
tp619
a(F1.5613058805465698
F-36.090232849121094
F4.224020481109619
tp620
a(F1.561111569404602
F-36.08574295043945
F5.078144073486328
tp621
a(F1.5609816312789917
F-36.08273696899414
F5.937911510467529
tp622
a(F1.5608471632003784
F-36.079627990722656
F6.80412483215332
tp623
a(F0.08671154826879501
F-0.856650173664093
F-0.336309015750885
tp624
a(F0.09300369024276733
F-0.9188121557235718
F-0.3361580967903137
tp625
a(F0.10135698318481445
F-1.0013368129730225
F-0.34004008769989014
tp626
a(F0.1082899272441864
F-1.0698295831680298
F-0.3356277048587799
tp627
a(F0.11853902786970139
F-1.171083688735962
F-0.3375397026538849
tp628
a(F0.13074132800102234
F-1.2916338443756104
F-0.3397957682609558
tp629
a(F0.1437959522008896
F-1.4206045866012573
F-0.33842340111732483
tp630
a(F0.16064925491809845
F-1.5871036052703857
F-0.3390817642211914
tp631
a(F0.18124020099639893
F-1.7905279397964478
F-0.33897095918655396
tp632
a(F0.20808760821819305
F-2.0557615756988525
F-0.33959364891052246
tp633
a(F0.24278557300567627
F-2.3985536098480225
F-0.3388023376464844
tp634
a(F0.2922419607639313
F-2.88714861869812
F-0.33915480971336365
tp635
a(F0.36496224999427795
F-3.605574607849121
F-0.3382652699947357
tp636
a(F0.4888249337673187
F-4.829252243041992
F-0.3393354117870331
tp637
a(F0.7329685688018799
F-7.241222381591797
F-0.338835209608078
tp638
a(F1.4659276008605957
F-14.482351303100586
F-0.33844172954559326
tp639
a(F3.180779457092285
F-31.42390251159668
F0.0009016857948154211
tp640
a(F3.1803529262542725
F-31.419689178466797
F0.73605877161026
tp641
a(F3.181325674057007
F-31.429296493530273
F1.4724642038345337
tp642
a(F3.1804206371307373
F-31.42035675048828
F2.209615468978882
tp643
a(F3.1807804107666016
F-31.423912048339844
F2.949925422668457
tp644
a(F3.180325746536255
F-31.419418334960938
F3.692682981491089
tp645
a(F3.182847261428833
F-31.4443302154541
F4.44343900680542
tp646
a(F3.181368350982666
F-31.429719924926758
F5.193764686584473
tp647
a(F3.181046485900879
F-31.426538467407227
F5.951333045959473
tp648
a(F0.13591644167900085
F-0.8502044081687927
F-0.33629822731018066
tp649
a(F0.14660246670246124
F-0.9170491695404053
F-0.3380458950996399
tp650
a(F0.15914781391620636
F-0.9955247640609741
F-0.34061846137046814
tp651
a(F0.17057713866233826
F-1.0670191049575806
F-0.3372730314731598
tp652
a(F0.18644817173480988
F-1.1662979125976562
F-0.33869799971580505
tp653
a(F0.20358049869537354
F-1.2734664678573608
F-0.3375454843044281
tp654
a(F0.22490184009075165
F-1.4068388938903809
F-0.3376741111278534
tp655
a(F0.2512744069099426
F-1.5718084573745728
F-0.3383490741252899
tp656
a(F0.28402748703956604
F-1.7766902446746826
F-0.3388904631137848
tp657
a(F0.324569970369339
F-2.0302975177764893
F-0.33791908621788025
tp658
a(F0.3808705508708954
F-2.382477045059204
F-0.33907201886177063
tp659
a(F0.45735201239585876
F-2.8608951568603516
F-0.3386078476905823
tp660
a(F0.573006808757782
F-3.5843560695648193
F-0.3388131856918335
tp661
a(F0.764275848865509
F-4.780810356140137
F-0.3384675085544586
tp662
a(F1.1481738090515137
F-7.182224750518799
F-0.3386116027832031
tp663
a(F2.296013355255127
F-14.362359046936035
F-0.3381713628768921
tp664
a(F4.442722797393799
F-27.790767669677734
F0.00080345559399575
tp665
a(F4.4436564445495605
F-27.796611785888672
F0.656097948551178
tp666
a(F4.442955017089844
F-27.792221069335938
F1.3118964433670044
tp667
a(F4.443409442901611
F-27.795063018798828
F1.969425082206726
tp668
a(F4.4422454833984375
F-27.787784576416016
F2.6282758712768555
tp669
a(F4.442129135131836
F-27.787057876586914
F3.2904298305511475
tp670
a(F4.443539142608643
F-27.79587745666504
F3.9575233459472656
tp671
a(F4.441381931304932
F-27.78238296508789
F4.625699996948242
tp672
a(F4.444757461547852
F-27.803499221801758
F5.304975509643555
tp673
a(F0.18979014456272125
F-0.8642660975456238
F-0.34561753273010254
tp674
a(F0.19939257204532623
F-0.9079935550689697
F-0.3383863866329193
tp675
a(F0.21525698900222778
F-0.9802369475364685
F-0.3390738368034363
tp676
a(F0.23102229833602905
F-1.052029013633728
F-0.33618953824043274
tp677
a(F0.2530179023742676
F-1.1521925926208496
F-0.33827918767929077
tp678
a(F0.27565833926200867
F-1.255292534828186
F-0.3363851010799408
tp679
a(F0.3070472180843353
F-1.3982311487197876
F-0.3392965495586395
tp680
a(F0.33907148241996765
F-1.5440632104873657
F-0.3360295593738556
tp681
a(F0.3868451416492462
F-1.7616147994995117
F-0.3397078812122345
tp682
a(F0.4408591687679291
F-2.0075838565826416
F-0.3378109931945801
tp683
a(F0.5179302096366882
F-2.3585498332977295
F-0.33935582637786865
tp684
a(F0.6212641000747681
F-2.8291115760803223
F-0.3385261297225952
tp685
a(F0.7783056497573853
F-3.5442469120025635
F-0.33870387077331543
tp686
a(F1.036287784576416
F-4.719045639038086
F-0.3377666175365448
tp687
a(F1.5568140745162964
F-7.089417457580566
F-0.3379095494747162
tp688
a(F3.119936466217041
F-14.207561492919922
F-0.3382031321525574
tp689
a(F5.462113857269287
F-24.873367309570312
F0.000727014266885817
tp690
a(F5.464557647705078
F-24.884492874145508
F0.5938170552253723
tp691
a(F5.463156223297119
F-24.87811279296875
F1.1872462034225464
tp692
a(F5.464254379272461
F-24.883113861083984
F1.782475471496582
tp693
a(F5.463879585266113
F-24.881406784057617
F2.379244089126587
tp694
a(F5.4614057540893555
F-24.870141983032227
F2.9773876667022705
tp695
a(F5.461846351623535
F-24.872146606445312
F3.5801682472229004
tp696
a(F5.458901882171631
F-24.858739852905273
F4.184408664703369
tp697
a(F5.462646484375
F-24.875791549682617
F4.798526287078857
tp698
a(F0.2345522791147232
F-0.8351100087165833
F-0.33880722522735596
tp699
a(F0.2509867548942566
F-0.8936240077018738
F-0.337866872549057
tp700
a(F0.2665310800075531
F-0.948968768119812
F-0.33302420377731323
tp701
a(F0.2932237982749939
F-1.044006586074829
F-0.3384701907634735
tp702
a(F0.32179704308509827
F-1.145740032196045
F-0.3412691056728363
tp703
a(F0.350443959236145
F-1.247735857963562
F-0.33921507000923157
tp704
a(F0.3825431764125824
F-1.3620232343673706
F-0.33530932664871216
tp705
a(F0.4287095367908478
F-1.5263960361480713
F-0.3370080888271332
tp706
a(F0.4847779870033264
F-1.7260245084762573
F-0.33767765760421753
tp707
a(F0.5579226613044739
F-1.9864518642425537
F-0.3391086161136627
tp708
a(F0.6505075097084045
F-2.3160951137542725
F-0.3380861282348633
tp709
a(F0.7819942831993103
F-2.7842462062835693
F-0.33799511194229126
tp710
a(F0.9753773212432861
F-3.472775459289551
F-0.33669260144233704
tp711
a(F1.3120144605636597
F-4.671352863311768
F-0.33920785784721375
tp712
a(F1.9666329622268677
F-7.002085208892822
F-0.3385930061340332
tp713
a(F3.9344305992126465
F-14.008316993713379
F-0.3383021354675293
tp714
a(F6.310271739959717
F-22.467363357543945
F0.0006662253872491419
tp715
a(F6.307349681854248
F-22.456958770751953
F0.5436701774597168
tp716
a(F6.307993412017822
F-22.459251403808594
F1.0873750448226929
tp717
a(F6.302082538604736
F-22.43820571899414
F1.6306759119033813
tp718
a(F6.305565357208252
F-22.450607299804688
F2.1779749393463135
tp719
a(F6.30811071395874
F-22.45966911315918
F2.7278542518615723
tp720
a(F6.306727409362793
F-22.454744338989258
F3.27913236618042
tp721
a(F6.305948257446289
F-22.45197105407715
F3.8341593742370605
tp722
a(F6.30446720123291
F-22.446697235107422
F4.392827033996582
tp723
a(F0.27476733922958374
F-0.7983948588371277
F-0.3297959864139557
tp724
a(F0.3021372854709625
F-0.8779240250587463
F-0.3379608392715454
tp725
a(F0.3277423083782196
F-0.9523248672485352
F-0.3402731418609619
tp726
a(F0.3551466166973114
F-1.0319539308547974
F-0.3406403958797455
tp727
a(F0.38133180141448975
F-1.1080405712127686
F-0.33603551983833313
tp728
a(F0.42283347249031067
F-1.2286324501037598
F-0.34008944034576416
tp729
a(F0.4618268311023712
F-1.3419359922409058
F-0.33636561036109924
tp730
a(F0.5171065330505371
F-1.5025628805160522
F-0.3377726078033447
tp731
a(F0.584017276763916
F-1.6969863176345825
F-0.3380277752876282
tp732
a(F0.6722819805145264
F-1.9534580707550049
F-0.339534193277359
tp733
a(F0.7832910418510437
F-2.2760183811187744
F-0.33827149868011475
tp734
a(F0.945232093334198
F-2.746572732925415
F-0.3394787311553955
tp735
a(F1.1833065748214722
F-3.4383482933044434
F-0.33941060304641724
tp736
a(F1.5752350091934204
F-4.577179908752441
F-0.33840739727020264
tp737
a(F2.367628812789917
F-6.879648208618164
F-0.3387158215045929
tp738
a(F4.73480224609375
F-13.757973670959473
F-0.3382921516895294
tp739
a(F7.015838623046875
F-20.386009216308594
F0.0006154885049909353
tp740
a(F7.020615100860596
F-20.39988899230957
F0.5028414130210876
tp741
a(F7.020623683929443
F-20.399913787841797
F1.0056133270263672
tp742
a(F7.018275737762451
F-20.393091201782227
F1.50897216796875
tp743
a(F7.016696929931641
F-20.38850212097168
F2.01385760307312
tp744
a(F7.017350196838379
F-20.390399932861328
F2.5215189456939697
tp745
a(F7.015027046203613
F-20.383651733398438
F3.030759572982788
tp746
a(F7.024531841278076
F-20.411270141601562
F3.5489866733551025
tp747
a(F7.018071174621582
F-20.39249610900879
F4.06331729888916
tp748
a(F0.3226475715637207
F-0.7869450449943542
F-0.33220478892326355
tp749
a(F0.3512372374534607
F-0.856675922870636
F-0.3370232880115509
tp750
a(F0.3813677728176117
F-0.9301649928092957
F-0.33965376019477844
tp751
a(F0.4112345576286316
F-1.0030107498168945
F-0.3383571207523346
tp752
a(F0.4472562372684479
F-1.0908684730529785
F-0.33809274435043335
tp753
a(F0.4882619082927704
F-1.1908823251724243
F-0.3368789851665497
tp754
a(F0.5421816110610962
F-1.322393774986267
F-0.33874621987342834
tp755
a(F0.605079174041748
F-1.4758025407791138
F-0.3390423059463501
tp756
a(F0.6815669536590576
F-1.6623579263687134
F-0.3384016156196594
tp757
a(F0.78508460521698
F-1.9148398637771606
F-0.34013065695762634
tp758
a(F0.9111040234565735
F-2.2222042083740234
F-0.3375261723995209
tp759
a(F1.0980644226074219
F-2.6782050132751465
F-0.3382977843284607
tp760
a(F1.3712096214294434
F-3.3444128036499023
F-0.33738774061203003
tp761
a(F1.8343673944473267
F-4.474065780639648
F-0.3380478024482727
tp762
a(F2.7537293434143066
F-6.716411113739014
F-0.33794063329696655
tp763
a(F5.519451141357422
F-13.462072372436523
F-0.3382853865623474
tp764
a(F7.6394219398498535
F-18.63273048400879
F0.0005749076954089105
tp765
a(F7.633146286010742
F-18.61742401123047
F0.4689825773239136
tp766
a(F7.635721683502197
F-18.62370491027832
F0.9382156729698181
tp767
a(F7.639493465423584
F-18.632904052734375
F1.4090052843093872
tp768
a(F7.640646457672119
F-18.635717391967773
F1.8811500072479248
tp769
a(F7.635266304016113
F-18.622594833374023
F2.353480339050293
tp770
a(F7.6369829177856445
F-18.626781463623047
F2.830357074737549
tp771
a(F7.641122817993164
F-18.636878967285156
F3.311627149581909
tp772
a(F7.637210845947266
F-18.627338409423828
F3.7931063175201416
tp773
a(F0.37655869126319885
F-0.7860658764839172
F-0.34044063091278076
tp774
a(F0.4025858938694
F-0.8403976559638977
F-0.33919474482536316
tp775
a(F0.43792712688446045
F-0.9141724109649658
F-0.3424723446369171
tp776
a(F0.4704919755458832
F-0.9821515679359436
F-0.33991408348083496
tp777
a(F0.5055513978004456
F-1.0553381443023682
F-0.3355644941329956
tp778
a(F0.5568624138832092
F-1.162449836730957
F-0.33736515045166016
tp779
a(F0.6106993556022644
F-1.2748342752456665
F-0.3350335955619812
tp780
a(F0.6860105991363525
F-1.4320464134216309
F-0.3375232517719269
tp781
a(F0.7802645564079285
F-1.6288014650344849
F-0.34017080068588257
tp782
a(F0.8883864879608154
F-1.8545058965682983
F-0.33795779943466187
tp783
a(F1.0421535968780518
F-2.17549467086792
F-0.33900216221809387
tp784
a(F1.2495882511138916
F-2.6085143089294434
F-0.3380410969257355
tp785
a(F1.563312292098999
F-3.2634129524230957
F-0.3377554714679718
tp786
a(F2.087738037109375
F-4.358151435852051
F-0.33783063292503357
tp787
a(F3.1381773948669434
F-6.550942420959473
F-0.33816438913345337
tp788
a(F6.285207271575928
F-13.120363235473633
F-0.3382502496242523
tp789
a(F8.17585277557373
F-17.06708526611328
F0.0005402588867582381
tp790
a(F8.1814546585083
F-17.078779220581055
F0.4413822293281555
tp791
a(F8.17676067352295
F-17.068981170654297
F0.8821960687637329
tp792
a(F8.178033828735352
F-17.071638107299805
F1.3244274854660034
tp793
a(F8.174428939819336
F-17.06411361694336
F1.767184853553772
tp794
a(F8.180084228515625
F-17.075916290283203
F2.2139885425567627
tp795
a(F8.169596672058105
F-17.054025650024414
F2.6585893630981445
tp796
a(F8.174736022949219
F-17.06475257873535
F3.1109225749969482
tp797
a(F8.180700302124023
F-17.07720375061035
F3.5676474571228027
tp798
a(F0.4179084300994873
F-0.7570668458938599
F-0.33776411414146423
tp799
a(F0.44571587443351746
F-0.8074417114257812
F-0.33571621775627136
tp800
a(F0.48377516865730286
F-0.8763884902000427
F-0.3382134735584259
tp801
a(F0.5213165879249573
F-0.9443970322608948
F-0.3366992473602295
tp802
a(F0.5732202529907227
F-1.038423776626587
F-0.3401385247707367
tp803
a(F0.6254666447639465
F-1.1330714225769043
F-0.3387506306171417
tp804
a(F0.6887833476066589
F-1.24777352809906
F-0.3378058969974518
tp805
a(F0.7681480646133423
F-1.3915475606918335
F-0.3378636837005615
tp806
a(F0.8651588559150696
F-1.5672885179519653
F-0.3371899724006653
tp807
a(F0.9941713213920593
F-1.8010026216506958
F-0.3381001949310303
tp808
a(F1.1607333421707153
F-2.1027400493621826
F-0.33754125237464905
tp809
a(F1.4056651592254639
F-2.5464489459991455
F-0.3399445712566376
tp810
a(F1.751200556755066
F-3.172407627105713
F-0.33823317289352417
tp811
a(F2.3346996307373047
F-4.229452133178711
F-0.33773624897003174
tp812
a(F3.515645742416382
F-6.368808746337891
F-0.33867189288139343
tp813
a(F7.02787446975708
F-12.731427192687988
F-0.3381163775920868
tp814
a(F8.661378860473633
F-15.690621376037598
F0.0005116577376611531
tp815
a(F8.653496742248535
F-15.676342964172363
F0.417349249124527
tp816
a(F8.655156135559082
F-15.67934799194336
F0.8347998857498169
tp817
a(F8.660534858703613
F-15.689091682434082
F1.2538560628890991
tp818
a(F8.664284706115723
F-15.695884704589844
F1.6744836568832397
tp819
a(F8.652387619018555
F-15.674332618713379
F2.093520402908325
tp820
a(F8.661489486694336
F-15.69082260131836
F2.5198047161102295
tp821
a(F8.6539888381958
F-15.67723274230957
F2.944119453430176
tp822
a(F8.661690711975098
F-15.69118595123291
F3.376896619796753
tp823
a(F0.45843905210494995
F-0.727935791015625
F-0.3360114097595215
tp824
a(F0.4954967796802521
F-0.7867782115936279
F-0.33845043182373047
tp825
a(F0.5357232093811035
F-0.8506520390510559
F-0.3396470248699188
tp826
a(F0.5762462615966797
F-0.9149968028068542
F-0.3375116288661957
tp827
a(F0.6311074495315552
F-1.0021085739135742
F-0.33960777521133423
tp828
a(F0.6859760880470276
F-1.089232087135315
F-0.33691856265068054
tp829
a(F0.7569658756256104
F-1.2019537687301636
F-0.3366672694683075
tp830
a(F0.8505343794822693
F-1.3505271673202515
F-0.3392567038536072
tp831
a(F0.9662880897521973
F-1.534327507019043
F-0.3415273129940033
tp832
a(F1.1032220125198364
F-1.7517590522766113
F-0.34024137258529663
tp833
a(F1.2816388607025146
F-2.035059690475464
F-0.3379870653152466
tp834
a(F1.5440126657485962
F-2.451671600341797
F-0.3386234939098358
tp835
a(F1.9241842031478882
F-3.0553300380706787
F-0.33702877163887024
tp836
a(F2.5754611492156982
F-4.0894646644592285
F-0.33786383271217346
tp837
a(F3.8737452030181885
F-6.150954723358154
F-0.33841148018836975
tp838
a(F7.759213447570801
F-12.320523262023926
F-0.33853214979171753
tp839
a(F9.097636222839355
F-14.445747375488281
F0.0004873725411016494
tp840
a(F9.086051940917969
F-14.427352905273438
F0.3973957598209381
tp841
a(F9.09284782409668
F-14.438145637512207
F0.7953301668167114
tp842
a(F9.097855567932129
F-14.44609546661377
F1.1944886445999146
tp843
a(F9.095860481262207
F-14.442927360534668
F1.5941603183746338
tp844
a(F9.089266777038574
F-14.432458877563477
F1.9943902492523193
tp845
a(F9.097594261169434
F-14.445680618286133
F2.4001636505126953
tp846
a(F9.087201118469238
F-14.429178237915039
F2.803556203842163
tp847
a(F9.090493202209473
F-14.434406280517578
F3.213975667953491
tp848
a(F0.5004162788391113
F-0.7014377117156982
F-0.3365500271320343
tp849
a(F0.5385706424713135
F-0.7549190521240234
F-0.33755356073379517
tp850
a(F0.5796862244606018
F-0.8125511407852173
F-0.3372299373149872
tp851
a(F0.6320019364356995
F-0.8858824968338013
F-0.33966031670570374
tp852
a(F0.6861649751663208
F-0.9618032574653625
F-0.33880409598350525
tp853
a(F0.7517131567001343
F-1.0536826848983765
F-0.33877697587013245
tp854
a(F0.8300778269767761
F-1.1635271310806274
F-0.33875772356987
tp855
a(F0.9317732453346252
F-1.3060745000839233
F-0.3410300016403198
tp856
a(F1.0398896932601929
F-1.4576222896575928
F-0.3372499644756317
tp857
a(F1.1979520320892334
F-1.6791795492172241
F-0.33900758624076843
tp858
a(F1.3949836492538452
F-1.9553604125976562
F-0.33755868673324585
tp859
a(F1.6798454523086548
F-2.354653835296631
F-0.33805036544799805
tp860
a(F2.108008861541748
F-2.9548139572143555
F-0.3387962281703949
tp861
a(F2.8102853298187256
F-3.9392011165618896
F-0.3382851481437683
tp862
a(F4.224729537963867
F-5.921839714050293
F-0.3386560082435608
tp863
a(F8.453121185302734
F-11.848812103271484
F-0.33841150999069214
tp864
a(F9.49338150024414
F-13.306954383850098
F0.00046665858826600015
tp865
a(F9.481945991516113
F-13.290924072265625
F0.38053208589553833
tp866
a(F9.494186401367188
F-13.30808162689209
F0.7619931101799011
tp867
a(F9.4946928024292
F-13.308791160583496
F1.1438515186309814
tp868
a(F9.487366676330566
F-13.298521995544434
F1.5257370471954346
tp869
a(F9.48645305633545
F-13.297242164611816
F1.9099892377853394
tp870
a(F9.486072540283203
F-13.296708106994629
F2.2963945865631104
tp871
a(F9.48751449584961
F-13.298728942871094
F2.6858229637145996
tp872
a(F9.48832893371582
F-13.299872398376465
F3.0781562328338623
tp873
a(F0.5414933562278748
F-0.6733042597770691
F-0.3374830484390259
tp874
a(F0.5926992893218994
F-0.7369747757911682
F-0.34425088763237
tp875
a(F0.6374633312225342
F-0.7926353812217712
F-0.34366002678871155
tp876
a(F0.6790018081665039
F-0.8442851305007935
F-0.3381722867488861
tp877
a(F0.7447435855865479
F-0.9260298609733582
F-0.34077486395835876
tp878
a(F0.8152945041656494
F-1.0137543678283691
F-0.3404998183250427
tp879
a(F0.8966612815856934
F-1.1149275302886963
F-0.3391090929508209
tp880
a(F1.0027472972869873
F-1.2468370199203491
F-0.34010615944862366
tp881
a(F1.1189898252487183
F-1.3913754224777222
F-0.3363035023212433
tp882
a(F1.2959247827529907
F-1.6113801002502441
F-0.3398524820804596
tp883
a(F1.5107121467590332
F-1.8784512281417847
F-0.3387681245803833
tp884
a(F1.8091089725494385
F-2.2494843006134033
F-0.33737853169441223
tp885
a(F2.273768901824951
F-2.827252149581909
F-0.338651567697525
tp886
a(F3.0222105979919434
F-3.757880210876465
F-0.3371303379535675
tp887
a(F4.561708450317383
F-5.67212438583374
F-0.3388659954071045
tp888
a(F9.107991218566895
F-11.325068473815918
F-0.33790239691734314
tp889
a(F9.8555908203125
F-12.25464916229248
F0.00044895376777276397
tp890
a(F9.854740142822266
F-12.253591537475586
F0.3665047585964203
tp891
a(F9.857940673828125
F-12.257570266723633
F0.7331960797309875
tp892
a(F9.844178199768066
F-12.240458488464355
F1.0990283489227295
tp893
a(F9.853564262390137
F-12.252128601074219
F1.468479871749878
tp894
a(F9.851204872131348
F-12.24919605255127
F1.8380489349365234
tp895
a(F9.860886573791504
F-12.261234283447266
F2.21216082572937
tp896
a(F9.851083755493164
F-12.249045372009277
F2.5843398571014404
tp897
a(F9.860922813415527
F-12.261279106140137
F2.964552402496338
tp898
a(F0.5847017168998718
F-0.6468722224235535
F-0.34058037400245667
tp899
a(F0.6263632774353027
F-0.6929636001586914
F-0.3400112986564636
tp900
a(F0.675570011138916
F-0.7474023699760437
F-0.3403850793838501
tp901
a(F0.7232840061187744
F-0.8001897931098938
F-0.33666837215423584
tp902
a(F0.7942560315132141
F-0.8787081241607666
F-0.3396625518798828
tp903
a(F0.8708680868148804
F-0.963466227054596
F-0.3399234712123871
tp904
a(F0.9581040740013123
F-1.0599778890609741
F-0.3386492431163788
tp905
a(F1.072027564048767
F-1.1860146522521973
F-0.33982500433921814
tp906
a(F1.203944206237793
F-1.3319578170776367
F-0.3381722867488861
tp907
a(F1.395560383796692
F-1.5439482927322388
F-0.34204691648483276
tp908
a(F1.6140414476394653
F-1.7856601476669312
F-0.33826878666877747
tp909
a(F1.9394638538360596
F-2.145684242248535
F-0.3380343019962311
tp910
a(F2.4225265979766846
F-2.680110454559326
F-0.3372109830379486
tp911
a(F3.2492313385009766
F-3.594717502593994
F-0.3387506604194641
tp912
a(F4.884775161743164
F-5.4041666984558105
F-0.3391340970993042
tp913
a(F9.746143341064453
F-10.782437324523926
F-0.3379308581352234
tp914
a(F10.191214561462402
F-11.274831771850586
F0.00043388165067881346
tp915
a(F10.190414428710938
F-11.273946762084961
F0.35420337319374084
tp916
a(F10.197525978088379
F-11.281814575195312
F0.7088513374328613
tp917
a(F10.193355560302734
F-11.277200698852539
F1.063586950302124
tp918
a(F10.189444541931152
F-11.272872924804688
F1.4192259311676025
tp919
a(F10.20046615600586
F-11.285067558288574
F1.7787468433380127
tp920
a(F10.195631980895996
F-11.279719352722168
F2.1376731395721436
tp921
a(F10.180834770202637
F-11.263348579406738
F2.4961769580841064
tp922
a(F10.199084281921387
F-11.283537864685059
F2.865689516067505
tp923
a(F0.6109869480133057
F-0.6022440791130066
F-0.33508986234664917
tp924
a(F0.6635767817497253
F-0.654081404209137
F-0.33915820717811584
tp925
a(F0.7195523977279663
F-0.7092560529708862
F-0.3413553237915039
tp926
a(F0.7758335471153259
F-0.7647318243980408
F-0.3400212824344635
tp927
a(F0.8335000276565552
F-0.8215731382369995
F-0.3356115520000458
tp928
a(F0.9178825616836548
F-0.9047482013702393
F-0.33733388781547546
tp929
a(F1.014884352684021
F-1.0003620386123657
F-0.337752103805542
tp930
a(F1.1328868865966797
F-1.116675853729248
F-0.33812713623046875
tp931
a(F1.2789537906646729
F-1.2606526613235474
F-0.33824437856674194
tp932
a(F1.4666420221328735
F-1.4456552267074585
F-0.3384583592414856
tp933
a(F1.710894227027893
F-1.6864123344421387
F-0.3376093804836273
tp934
a(F2.0552423000335693
F-2.0258331298828125
F-0.3372766077518463
tp935
a(F2.577014923095703
F-2.5401394367218018
F-0.33774909377098083
tp936
a(F3.4434564113616943
F-3.3941826820373535
F-0.3380167484283447
tp937
a(F5.166608810424805
F-5.092677593231201
F-0.3377353549003601
tp938
a(F10.36069107055664
F-10.212435722351074
F-0.3382422626018524
tp939
a(F10.510051727294922
F-10.359658241271973
F0.0004213027423247695
tp940
a(F10.516986846923828
F-10.366495132446289
F0.3441884219646454
tp941
a(F10.515937805175781
F-10.365461349487305
F0.6882598400115967
tp942
a(F10.512697219848633
F-10.362266540527344
F1.032794713973999
tp943
a(F10.511713027954102
F-10.361296653747559
F1.378537654876709
tp944
a(F10.519181251525879
F-10.368658065795898
F1.727110505104065
tp945
a(F10.519147872924805
F-10.368624687194824
F2.076594829559326
tp946
a(F10.510161399841309
F-10.359766960144043
F2.4263052940368652
tp947
a(F10.51744556427002
F-10.36694622039795
F2.7824175357818604
tp948
a(F0.6475201845169067
F-0.5685474276542664
F-0.3365720510482788
tp949
a(F0.7022616863250732
F-0.6166125535964966
F-0.340177446603775
tp950
a(F0.7604084014892578
F-0.6676676273345947
F-0.3418901562690735
tp951
a(F0.8148204684257507
F-0.71544349193573
F-0.3384503126144409
tp952
a(F0.8925017714500427
F-0.7836506366729736
F-0.34059303998947144
tp953
a(F0.9732527136802673
F-0.8545531034469604
F-0.33899548649787903
tp954
a(F1.0675318241119385
F-0.9373337626457214
F-0.3367113471031189
tp955
a(F1.1970806121826172
F-1.0510824918746948
F-0.33861976861953735
tp956
a(F1.3526406288146973
F-1.187670111656189
F-0.339042067527771
tp957
a(F1.5354467630386353
F-1.348180890083313
F-0.3358236849308014
tp958
a(F1.8083865642547607
F-1.5878325700759888
F-0.33820345997810364
tp959
a(F2.1825385093688965
F-1.9163521528244019
F-0.33945366740226746
tp960
a(F2.7209091186523438
F-2.3890621662139893
F-0.3379766345024109
tp961
a(F3.650575637817383
F-3.2053449153900146
F-0.3396255671977997
tp962
a(F5.460760116577148
F-4.794755935668945
F-0.33831363916397095
tp963
a(F10.8190336227417
F-9.49952507019043
F-0.3347519040107727
tp964
a(F10.81551742553711
F-9.496438026428223
F0.00041089626029133797
tp965
a(F10.813278198242188
F-9.494471549987793
F0.335395872592926
tp966
a(F10.825324058532715
F-9.505047798156738
F0.6714918613433838
tp967
a(F10.813566207885742
F-9.49472427368164
F1.0068488121032715
tp968
a(F10.815173149108887
F-9.496135711669922
F1.3442314863204956
tp969
a(F10.812626838684082
F-9.49389934539795
F1.6825377941131592
tp970
a(F10.808837890625
F-9.490571975708008
F2.0223002433776855
tp971
a(F10.812809944152832
F-9.494059562683105
F2.3657565116882324
tp972
a(F10.818521499633789
F-9.499074935913086
F2.7125351428985596
tp973
a(F0.681063711643219
F-0.5317534804344177
F-0.33749568462371826
tp974
a(F0.7328476309776306
F-0.5721848011016846
F-0.3384355902671814
tp975
a(F0.786494255065918
F-0.6140704154968262
F-0.3371250331401825
tp976
a(F0.8540721535682678
F-0.6668331623077393
F-0.33820754289627075
tp977
a(F0.9364033937454224
F-0.7311148643493652
F-0.3406790494918823
tp978
a(F1.0199203491210938
F-0.7963222861289978
F-0.33868056535720825
tp979
a(F1.12532377243042
F-0.878618061542511
F-0.3383842706680298
tp980
a(F1.25746488571167
F-0.981789767742157
F-0.33910995721817017
tp981
a(F1.4010109901428223
F-1.0938661098480225
F-0.33478689193725586
tp982
a(F1.6118650436401367
F-1.25849449634552
F-0.3360942006111145
tp983
a(F1.903013825416565
F-1.4858144521713257
F-0.3393004834651947
tp984
a(F2.2835516929626465
F-1.7829267978668213
F-0.33859866857528687
tp985
a(F2.8543307781219482
F-2.2285733222961426
F-0.3380124866962433
tp986
a(F3.811558485031128
F-2.975947141647339
F-0.3380627930164337
tp987
a(F5.722344875335693
F-4.467830181121826
F-0.33798402547836304
tp988
a(F11.096087455749512
F-8.663482666015625
F-0.327310711145401
tp989
a(F11.10692310333252
F-8.671942710876465
F0.00040228551370091736
tp990
a(F11.103288650512695
F-8.669105529785156
F0.32832786440849304
tp991
a(F11.102307319641113
F-8.668338775634766
F0.6565515995025635
tp992
a(F11.10873031616211
F-8.673354148864746
F0.9860876202583313
tp993
a(F11.096880912780762
F-8.664101600646973
F1.3149137496948242
tp994
a(F11.096575736999512
F-8.663864135742188
F1.646183967590332
tp995
a(F11.0914306640625
F-8.659846305847168
F1.9783811569213867
tp996
a(F11.101043701171875
F-8.667352676391602
F2.315533399581909
tp997
a(F11.119813919067383
F-8.682007789611816
F2.6580355167388916
tp998
a(F0.7119348645210266
F-0.4925787150859833
F-0.338144987821579
tp999
a(F0.7539435029029846
F-0.5216439962387085
F-0.333720862865448
tp1000
a(F0.8311349749565125
F-0.5750517845153809
F-0.34146735072135925
tp1001
a(F0.8925275206565857
F-0.61752849817276
F-0.3387603163719177
tp1002
a(F0.9649147987365723
F-0.6676123738288879
F-0.3364756107330322
tp1003
a(F1.0618867874145508
F-0.7347060441970825
F-0.3379749059677124
tp1004
a(F1.1691570281982422
F-0.8089249730110168
F-0.33696725964546204
tp1005
a(F1.3218938112258911
F-0.9146016240119934
F-0.341683030128479
tp1006
a(F1.4696515798568726
F-1.0168333053588867
F-0.33660727739334106
tp1007
a(F1.698231816291809
F-1.1749850511550903
F-0.3393997251987457
tp1008
a(F1.9739996194839478
F-1.3657853603363037
F-0.3373430371284485
tp1009
a(F2.3750977516174316
F-1.643300175666809
F-0.33754995465278625
tp1010
a(F2.9771177768707275
F-2.0598301887512207
F-0.3379143476486206
tp1011
a(F3.9917924404144287
F-2.7618706226348877
F-0.3393477201461792
tp1012
a(F5.989543437957764
F-4.144089221954346
F-0.33907678723335266
tp1013
a(F11.392813682556152
F-7.882543563842773
F-0.32210949063301086
tp1014
a(F11.37976360321045
F-7.873514652252197
F0.00039505361928604543
tp1015
a(F11.383896827697754
F-7.876373767852783
F0.32264819741249084
tp1016
a(F11.376694679260254
F-7.8713908195495605
F0.6448428630828857
tp1017
a(F11.394908905029297
F-7.883993148803711
F0.9694917798042297
tp1018
a(F11.376482963562012
F-7.871244430541992
F1.2920714616775513
tp1019
a(F11.389287948608398
F-7.8801045417785645
F1.6194522380828857
tp1020
a(F11.375387191772461
F-7.870486736297607
F1.9447813034057617
tp1021
a(F11.380661964416504
F-7.874136447906494
F2.2752912044525146
tp1022
a(F11.375328063964844
F-7.870445728302002
F2.6062097549438477
tp1023
a(F0.7376655340194702
F-0.4498510956764221
F-0.33747464418411255
tp1024
a(F0.7921505570411682
F-0.4830777049064636
F-0.3377312123775482
tp1025
a(F0.8562320470809937
F-0.5221565961837769
F-0.33883485198020935
tp1026
a(F0.9376187324523926
F-0.5717886686325073
F-0.34278053045272827
tp1027
a(F1.0093319416046143
F-0.6155215501785278
F-0.3390139639377594
tp1028
a(F1.114096760749817
F-0.6794103980064392
F-0.3415451645851135
tp1029
a(F1.2169193029403687
F-0.7421147227287292
F-0.33782798051834106
tp1030
a(F1.3522543907165527
F-0.8246462345123291
F-0.3366698622703552
tp1031
a(F1.5259356498718262
F-0.930562436580658
F-0.3366388976573944
tp1032
a(F1.750798225402832
F-1.0676904916763306
F-0.3370307981967926
tp1033
a(F2.0463976860046387
F-1.2479561567306519
F-0.33684778213500977
tp1034
a(F2.460977554321289
F-1.500779628753662
F-0.3368861675262451
tp1035
a(F3.084982395172119
F-1.881316900253296
F-0.3372735381126404
tp1036
a(F4.131282806396484
F-2.519382953643799
F-0.3382835388183594
tp1037
a(F6.2046403884887695
F-3.783780336380005
F-0.338329553604126
tp1038
a(F11.647502899169922
F-7.1030049324035645
F-0.31719353795051575
tp1039
a(F11.648104667663574
F-7.103371620178223
F0.00038949065492488444
tp1040
a(F11.653003692626953
F-7.106359481811523
F0.31812307238578796
tp1041
a(F11.643903732299805
F-7.100809574127197
F0.6357046365737915
tp1042
a(F11.642953872680664
F-7.100230693817139
F0.9541472792625427
tp1043
a(F11.64230728149414
F-7.099836349487305
F1.273610234260559
tp1044
a(F11.643746376037598
F-7.100713729858398
F1.5947157144546509
tp1045
a(F11.653521537780762
F-7.106675148010254
F1.9190254211425781
tp1046
a(F11.625772476196289
F-7.089752674102783
F2.238773822784424
tp1047
a(F11.63888168334961
F-7.097746849060059
F2.568476676940918
tp1048
a(F0.7636090517044067
F-0.4072732925415039
F-0.33802884817123413
tp1049
a(F0.8293649554252625
F-0.44234442710876465
F-0.34214502573013306
tp1050
a(F0.8724307417869568
F-0.4653136730194092
F-0.33406317234039307
tp1051
a(F0.9603450894355774
F-0.5122030973434448
F-0.3397177457809448
tp1052
a(F1.0464941263198853
F-0.5581509470939636
F-0.3401115834712982
tp1053
a(F1.137428641319275
F-0.6066511273384094
F-0.33740413188934326
tp1054
a(F1.2713202238082886
F-0.6780626773834229
F-0.34149932861328125
tp1055
a(F1.4077826738357544
F-0.7508453130722046
F-0.33914270997047424
tp1056
a(F1.5987576246261597
F-0.8527024388313293
F-0.3412807285785675
tp1057
a(F1.8148807287216187
F-0.9679723381996155
F-0.33805128931999207
tp1058
a(F2.126183271408081
F-1.1340066194534302
F-0.3386455774307251
tp1059
a(F2.5490188598632812
F-1.3595272302627563
F-0.33763667941093445
tp1060
a(F3.1969611644744873
F-1.7051092386245728
F-0.3381956219673157
tp1061
a(F4.27751350402832
F-2.2814252376556396
F-0.33891308307647705
tp1062
a(F6.39952278137207
F-3.413205623626709
F-0.3376540243625641
tp1063
a(F11.911290168762207
F-6.352924346923828
F-0.3138711154460907
tp1064
a(F11.89319896697998
F-6.34327507019043
F0.0003848056949209422
tp1065
a(F11.905028343200684
F-6.349584579467773
F0.3144769072532654
tp1066
a(F11.929830551147461
F-6.362812519073486
F0.6302198171615601
tp1067
a(F11.906890869140625
F-6.350577354431152
F0.9441731572151184
tp1068
a(F11.907672882080078
F-6.350995063781738
F1.2604494094848633
tp1069
a(F11.911373138427734
F-6.352968692779541
F1.578532099723816
tp1070
a(F11.898935317993164
F-6.346334457397461
F1.8959753513336182
tp1071
a(F11.888708114624023
F-6.340879917144775
F2.215256929397583
tp1072
a(F11.90180778503418
F-6.347866535186768
F2.541431188583374
tp1073
a(F0.7821943759918213
F-0.3609379529953003
F-0.3364758789539337
tp1074
a(F0.8387216925621033
F-0.38702207803726196
F-0.33623191714286804
tp1075
a(F0.904499888420105
F-0.41737496852874756
F-0.3365601599216461
tp1076
a(F0.9987170696258545
F-0.4608507752418518
F-0.34331274032592773
tp1077
a(F1.0673503875732422
F-0.49252110719680786
F-0.3370917737483978
tp1078
a(F1.1780965328216553
F-0.5436241030693054
F-0.33959683775901794
tp1079
a(F1.2879747152328491
F-0.5943266749382019
F-0.3362008035182953
tp1080
a(F1.4506348371505737
F-0.6693849563598633
F-0.33959513902664185
tp1081
a(F1.6274443864822388
F-0.7509725093841553
F-0.3375917375087738
tp1082
a(F1.8682559728622437
F-0.8620932698249817
F-0.3381640613079071
tp1083
a(F2.1919376850128174
F-1.0114538669586182
F-0.33925747871398926
tp1084
a(F2.6230456829071045
F-1.2103855609893799
F-0.3376283645629883
tp1085
a(F3.310075044631958
F-1.5274101495742798
F-0.3402710258960724
tp1086
a(F4.39624547958374
F-2.028615713119507
F-0.3384819030761719
tp1087
a(F6.589174747467041
F-3.040527105331421
F-0.33784064650535583
tp1088
a(F12.171127319335938
F-5.616279125213623
F-0.31165915727615356
tp1089
a(F12.166521072387695
F-5.6141533851623535
F0.0003825302410405129
tp1090
a(F12.165184020996094
F-5.613536357879639
F0.3122723400592804
tp1091
a(F12.160654067993164
F-5.611446380615234
F0.6242682933807373
tp1092
a(F12.170585632324219
F-5.616029262542725
F0.9378238916397095
tp1093
a(F12.165690422058105
F-5.613770008087158
F1.251387596130371
tp1094
a(F12.160840034484863
F-5.611532211303711
F1.56607186794281
tp1095
a(F12.166474342346191
F-5.614131927490234
F1.8838480710983276
tp1096
a(F12.155633926391602
F-5.609129428863525
F2.2010180950164795
tp1097
a(F12.16989517211914
F-5.615710258483887
F2.525275707244873
tp1098
a(F0.8056491613388062
F-0.31683191657066345
F-0.33813777565956116
tp1099
a(F0.8627623319625854
F-0.33929237723350525
F-0.3374587595462799
tp1100
a(F0.9463619589805603
F-0.37216901779174805
F-0.3435736894607544
tp1101
a(F1.0169548988342285
F-0.39993059635162354
F-0.34108108282089233
tp1102
a(F1.1119102239608765
F-0.4372729957103729
F-0.342625230550766
tp1103
a(F1.19594407081604
F-0.4703204035758972
F-0.33635827898979187
tp1104
a(F1.327850103378296
F-0.5221941471099854
F-0.338180810213089
tp1105
a(F1.4745289087295532
F-0.579877495765686
F-0.3367946445941925
tp1106
a(F1.6687211990356445
F-0.6562460660934448
F-0.33773642778396606
tp1107
a(F1.9274026155471802
F-0.7579758763313293
F-0.34038621187210083
tp1108
a(F2.2493577003479004
F-0.884588897228241
F-0.33967864513397217
tp1109
a(F2.7029340267181396
F-1.062963604927063
F-0.3394509255886078
tp1110
a(F3.3803622722625732
F-1.3293709754943848
F-0.3390462100505829
tp1111
a(F4.5107855796813965
F-1.773924469947815
F-0.33885520696640015
tp1112
a(F6.768591403961182
F-2.6618356704711914
F-0.3386005461215973
tp1113
a(F12.418670654296875
F-4.8838019371032715
F-0.31026491522789
tp1114
a(F12.425642967224121
F-4.8865437507629395
F0.00038117700023576617
tp1115
a(F12.419246673583984
F-4.884028434753418
F0.3110416531562805
tp1116
a(F12.416438102722168
F-4.8829240798950195
F0.6218990087509155
tp1117
a(F12.423369407653809
F-4.885650157928467
F0.9340232610702515
tp1118
a(F12.408270835876465
F-4.879712104797363
F1.2453023195266724
tp1119
a(F12.415432929992676
F-4.882528781890869
F1.5599778890609741
tp1120
a(F12.432687759399414
F-4.8893141746521
F1.8782553672790527
tp1121
a(F12.415934562683105
F-4.882726192474365
F2.193480968475342
tp1122
a(F12.428889274597168
F-4.887820243835449
F2.5163018703460693
tp1123
a(F0.819678544998169
F-0.26894381642341614
F-0.33695149421691895
tp1124
a(F0.8857601881027222
F-0.29062578082084656
F-0.33932963013648987
tp1125
a(F0.9491050243377686
F-0.31140977144241333
F-0.33748385310173035
tp1126
a(F1.0333610773086548
F-0.3390549421310425
F-0.3394564986228943
tp1127
a(F1.1128811836242676
F-0.3651462197303772
F-0.3358725905418396
tp1128
a(F1.208568811416626
F-0.39654213190078735
F-0.33291909098625183
tp1129
a(F1.3556331396102905
F-0.44479525089263916
F-0.3381568193435669
tp1130
a(F1.521046757698059
F-0.4990689158439636
F-0.340275377035141
tp1131
a(F1.6984628438949585
F-0.5572807192802429
F-0.3366869390010834
tp1132
a(F1.953757882118225
F-0.641045331954956
F-0.33794528245925903
tp1133
a(F2.2867448329925537
F-0.7503013014793396
F-0.33822330832481384
tp1134
a(F2.752955913543701
F-0.9032692909240723
F-0.33862337470054626
tp1135
a(F3.4479947090148926
F-1.1313177347183228
F-0.338718056678772
tp1136
a(F4.599978446960449
F-1.5092936754226685
F-0.33844947814941406
tp1137
a(F6.895834445953369
F-2.2625844478607178
F-0.33787205815315247
tp1138
a(F12.669650077819824
F-4.157024383544922
F-0.3100261092185974
tp1139
a(F12.691195487976074
F-4.164093971252441
F0.00038131725159473717
tp1140
a(F12.676653861999512
F-4.159322738647461
F0.3109596371650696
tp1141
a(F12.671751976013184
F-4.157714366912842
F0.6216351985931396
tp1142
a(F12.672511100769043
F-4.157963275909424
F0.9331620335578918
tp1143
a(F12.677666664123535
F-4.15965461730957
F1.246174693107605
tp1144
a(F12.67054557800293
F-4.157318115234375
F1.5592938661575317
tp1145
a(F12.672480583190918
F-4.157953262329102
F1.875112533569336
tp1146
a(F12.677444458007812
F-4.159582138061523
F2.193624496459961
tp1147
a(F12.677179336547852
F-4.1594953536987305
F2.513791084289551
tp1148
a(F0.8472492694854736
F-0.22483991086483002
F-0.3423818349838257
tp1149
a(F0.9014095067977905
F-0.239212766289711
F-0.33947163820266724
tp1150
a(F0.9714555740356445
F-0.2578013241291046
F-0.3395763039588928
tp1151
a(F1.048315405845642
F-0.27819809317588806
F-0.3385319709777832
tp1152
a(F1.1446658372879028
F-0.30376723408699036
F-0.3396097719669342
tp1153
a(F1.2449995279312134
F-0.33039340376853943
F-0.3371415138244629
tp1154
a(F1.3824352025985718
F-0.3668656051158905
F-0.338997483253479
tp1155
a(F1.542594313621521
F-0.40936803817749023
F-0.3392465114593506
tp1156
a(F1.7165346145629883
F-0.455527663230896
F-0.33450180292129517
tp1157
a(F1.9992036819458008
F-0.5305413603782654
F-0.3399447798728943
tp1158
a(F2.332535743713379
F-0.6189997792243958
F-0.3391484320163727
tp1159
a(F2.795478343963623
F-0.7418537735939026
F-0.3380255103111267
tp1160
a(F3.4983885288238525
F-0.9283895492553711
F-0.3378434181213379
tp1161
a(F4.669280529022217
F-1.2391165494918823
F-0.337725430727005
tp1162
a(F7.023659706115723
F-1.8639130592346191
F-0.33830201625823975
tp1163
a(F12.932670593261719
F-3.4320247173309326
F-0.31109824776649475
tp1164
a(F12.91269588470459
F-3.4267237186431885
F0.0003813963558059186
tp1165
a(F12.938565254211426
F-3.433589220046997
F0.31200477480888367
tp1166
a(F12.935857772827148
F-3.432870388031006
F0.6238351464271545
tp1167
a(F12.926519393920898
F-3.4303925037384033
F0.9357324838638306
tp1168
a(F12.942928314208984
F-3.434746742248535
F1.2506847381591797
tp1169
a(F12.925822257995605
F-3.4302072525024414
F1.5637471675872803
tp1170
a(F12.914342880249023
F-3.4271609783172607
F1.87851083278656
tp1171
a(F12.92623233795166
F-3.430316209793091
F2.1987619400024414
tp1172
a(F12.924979209899902
F-3.429983615875244
F2.519486665725708
tp1173
a(F0.8365793228149414
F-0.17111077904701233
F-0.33352476358413696
tp1174
a(F0.9203565120697021
F-0.1882462501525879
F-0.3419470489025116
tp1175
a(F0.9812888503074646
F-0.20070911943912506
F-0.3384018838405609
tp1176
a(F1.0539438724517822
F-0.21556968986988068
F-0.33577367663383484
tp1177
a(F1.1590346097946167
F-0.23706455528736115
F-0.33924955129623413
tp1178
a(F1.2628148794174194
F-0.2582913935184479
F-0.3373682498931885
tp1179
a(F1.4128901958465576
F-0.2889872193336487
F-0.34180745482444763
tp1180
a(F1.5597680807113647
F-0.3190290927886963
F-0.33841150999069214
tp1181
a(F1.7617624998092651
F-0.360344260931015
F-0.3386996388435364
tp1182
a(F2.029536008834839
F-0.415113627910614
F-0.34046268463134766
tp1183
a(F2.3554961681365967
F-0.48178431391716003
F-0.33788225054740906
tp1184
a(F2.8283097743988037
F-0.5784918069839478
F-0.33739742636680603
tp1185
a(F3.5499484539031982
F-0.726093053817749
F-0.3382135033607483
tp1186
a(F4.744006633758545
F-0.9703212380409241
F-0.33851704001426697
tp1187
a(F7.127607345581055
F-1.45785391330719
F-0.3386930823326111
tp1188
a(F13.170178413391113
F-2.6937785148620605
F-0.3125520944595337
tp1189
a(F13.176852226257324
F-2.695143699645996
F0.00038396596210077405
tp1190
a(F13.173171043395996
F-2.6943905353546143
F0.3133912682533264
tp1191
a(F13.182538986206055
F-2.6963067054748535
F0.6271842122077942
tp1192
a(F13.166947364807129
F-2.693117618560791
F0.9403220415115356
tp1193
a(F13.184066772460938
F-2.6966192722320557
F1.2568578720092773
tp1194
a(F13.159887313842773
F-2.691673755645752
F1.5706592798233032
tp1195
a(F13.183647155761719
F-2.696533441543579
F1.8919011354446411
tp1196
a(F13.187444686889648
F-2.697310209274292
F2.2130353450775146
tp1197
a(F13.195260047912598
F-2.698908567428589
F2.537590980529785
tp1198
a(F0.8381807208061218
F-0.12163309007883072
F-0.3308144509792328
tp1199
a(F0.9305272698402405
F-0.1350340098142624
F-0.3422612249851227
tp1200
a(F0.989920973777771
F-0.14365296065807343
F-0.33795762062072754
tp1201
a(F1.072765827178955
F-0.15567505359649658
F-0.33834514021873474
tp1202
a(F1.1722875833511353
F-0.17011721432209015
F-0.33969008922576904
tp1203
a(F1.2725106477737427
F-0.1846611350774765
F-0.3365516662597656
tp1204
a(F1.416761040687561
F-0.20559410750865936
F-0.33930912613868713
tp1205
a(F1.588390588760376
F-0.2305002361536026
F-0.34116795659065247
tp1206
a(F1.7823964357376099
F-0.25865352153778076
F-0.33923256397247314
tp1207
a(F2.0291330814361572
F-0.2944588363170624
F-0.33698388934135437
tp1208
a(F2.376847982406616
F-0.3449177145957947
F-0.3375282883644104
tp1209
a(F2.8679826259613037
F-0.4161889851093292
F-0.3387015163898468
tp1210
a(F3.5860438346862793
F-0.5203908681869507
F-0.33822858333587646
tp1211
a(F4.784233570098877
F-0.6942669153213501
F-0.33796635270118713
tp1212
a(F7.191815376281738
F-1.0436445474624634
F-0.33831945061683655
tp1213
a(F13.436066627502441
F-1.9497828483581543
F-0.31566670536994934
tp1214
a(F13.44120979309082
F-1.9505290985107422
F0.0003877441631630063
tp1215
a(F13.448686599731445
F-1.9516140222549438
F0.3167395293712616
tp1216
a(F13.444146156311035
F-1.9509551525115967
F0.6332206726074219
tp1217
a(F13.43842601776123
F-1.9501250982284546
F0.9500921964645386
tp1218
a(F13.432263374328613
F-1.9492307901382446
F1.2676862478256226
tp1219
a(F13.444588661193848
F-1.9510194063186646
F1.588558316230774
tp1220
a(F13.446029663085938
F-1.9512286186218262
F1.9102171659469604
tp1221
a(F13.4273042678833
F-1.9485112428665161
F2.230706214904785
tp1222
a(F13.444380760192871
F-1.9509893655776978
F2.5595896244049072
tp1223
a(F0.8856784105300903
F-0.0767722949385643
F-0.3472346067428589
tp1224
a(F0.9197584390640259
F-0.07972641289234161
F-0.33604896068573
tp1225
a(F0.9945774078369141
F-0.08621186763048172
F-0.33728769421577454
tp1226
a(F1.0742740631103516
F-0.09312012791633606
F-0.3365660309791565
tp1227
a(F1.186805009841919
F-0.1028745248913765
F-0.3416081666946411
tp1228
a(F1.2944189310073853
F-0.11220269650220871
F-0.34006768465042114
tp1229
a(F1.4112930297851562
F-0.1223335713148117
F-0.3357502222061157
tp1230
a(F1.5885584354400635
F-0.13769927620887756
F-0.3389333486557007
tp1231
a(F1.7845094203948975
F-0.15468469262123108
F-0.3373744785785675
tp1232
a(F2.043147325515747
F-0.1771039068698883
F-0.33705320954322815
tp1233
a(F2.3991055488586426
F-0.20795904099941254
F-0.3384217619895935
tp1234
a(F2.884660005569458
F-0.25004783272743225
F-0.33840397000312805
tp1235
a(F3.603533983230591
F-0.3123611807823181
F-0.33761635422706604
tp1236
a(F4.821894645690918
F-0.41797101497650146
F-0.3383599519729614
tp1237
a(F7.256925582885742
F-0.6290441751480103
F-0.33911052346229553
tp1238
a(F13.716076850891113
F-1.1889357566833496
F-0.3201007544994354
tp1239
a(F13.718704223632812
F-1.1891634464263916
F0.0003931154788006097
tp1240
a(F13.71359634399414
F-1.188720703125
F0.32082924246788025
tp1241
a(F13.705662727355957
F-1.1880329847335815
F0.6412422060966492
tp1242
a(F13.716315269470215
F-1.188956379890442
F0.9632853865623474
tp1243
a(F13.696039199829102
F-1.1871988773345947
F1.2839785814285278
tp1244
a(F13.703980445861816
F-1.187887191772461
F1.6084314584732056
tp1245
a(F13.6891450881958
F-1.186601161956787
F1.931813359260559
tp1246
a(F13.702821731567383
F-1.1877868175506592
F2.261328935623169
tp1247
a(F13.719366073608398
F-1.1892207860946655
F2.594559907913208
tp1248
a(F0.8787295818328857
F-0.025333695113658905
F-0.343365877866745
tp1249
a(F0.9382349848747253
F-0.0270492285490036
F-0.34166091680526733
tp1250
a(F0.9973877668380737
F-0.028754599392414093
F-0.33711713552474976
tp1251
a(F1.0847938060760498
F-0.03127450868487358
F-0.33873283863067627
tp1252
a(F1.181139588356018
F-0.03405214846134186
F-0.3388480842113495
tp1253
a(F1.2950336933135986
F-0.037335705012083054
F-0.3390989899635315
tp1254
a(F1.431640625
F-0.041274070739746094
F-0.3394595682621002
tp1255
a(F1.5856679677963257
F-0.045714665204286575
F-0.3371928036212921
tp1256
a(F1.7985986471176147
F-0.05185343697667122
F-0.3389085829257965
tp1257
a(F2.0553407669067383
F-0.05925528705120087
F-0.3379383683204651
tp1258
a(F2.406805992126465
F-0.0693880021572113
F-0.33838021755218506
tp1259
a(F2.8958659172058105
F-0.08348755538463593
F-0.33859002590179443
tp1260
a(F3.6316065788269043
F-0.10469888895750046
F-0.33911624550819397
tp1261
a(F4.8483500480651855
F-0.13977749645709991
F-0.33908623456954956
tp1262
a(F7.257086753845215
F-0.20922115445137024
F-0.33799153566360474
tp1263
a(F13.98872184753418
F-0.40329357981681824
F-0.3253791630268097
tp1264
a(F13.971324920654297
F-0.4027920365333557
F0.0003990245168097317
tp1265
a(F13.976968765258789
F-0.40295475721359253
F0.32590457797050476
tp1266
a(F13.978673934936523
F-0.40300390124320984
F0.6518429517745972
tp1267
a(F13.965639114379883
F-0.4026281237602234
F0.9775371551513672
tp1268
a(F13.985447883605957
F-0.4031991958618164
F1.3067547082901
tp1269
a(F13.97406005859375
F-0.40287089347839355
F1.634682297706604
tp1270
a(F13.987278938293457
F-0.4032520055770874
F1.9673290252685547
tp1271
a(F13.98574447631836
F-0.40320777893066406
F2.300351619720459
tp1272
a(F13.979555130004883
F-0.40302932262420654
F2.634983777999878
tp1273
a(F0.8681480884552002
F0.02502863109111786
F-0.33923110365867615
tp1274
a(F0.9315907955169678
F0.026857679709792137
F-0.3392414450645447
tp1275
a(F0.9962673783302307
F0.02872229926288128
F-0.3367384672164917
tp1276
a(F1.096479892730713
F0.03161141648888588
F-0.34238189458847046
tp1277
a(F1.1855401992797852
F0.03417901694774628
F-0.34011054039001465
tp1278
a(F1.2954577207565308
F0.03734792768955231
F-0.33921000361442566
tp1279
a(F1.4320268630981445
F0.041285205632448196
F-0.33955118060112
tp1280
a(F1.5917069911956787
F0.04588876664638519
F-0.3384769856929779
tp1281
a(F1.8042256832122803
F0.05201566591858864
F-0.33996888995170593
tp1282
a(F2.051039218902588
F0.05913127586245537
F-0.3372311294078827
tp1283
a(F2.4134438037872314
F0.06957937031984329
F-0.33931344747543335
tp1284
a(F2.8921451568603516
F0.08338028937578201
F-0.33815500140190125
tp1285
a(F3.629836082458496
F0.10464784502983093
F-0.33895090222358704
tp1286
a(F4.851863384246826
F0.1398787796497345
F-0.3393319249153137
tp1287
a(F7.266634941101074
F0.20949643850326538
F-0.3384362459182739
tp1288
a(F14.2644681930542
F0.41124334931373596
F-0.33179306983947754
tp1289
a(F14.25698471069336
F0.41102758049964905
F0.00040718301897868514
tp1290
a(F14.256482124328613
F0.41101309657096863
F0.33242207765579224
tp1291
a(F14.252664566040039
F0.41090303659439087
F0.6646194458007812
tp1292
a(F14.258694648742676
F0.4110768735408783
F0.998049795627594
tp1293
a(F14.26417064666748
F0.4112347662448883
F1.332797646522522
tp1294
a(F14.254460334777832
F0.4109548032283783
F1.6674833297729492
tp1295
a(F14.26134204864502
F0.41115322709083557
F2.0058765411376953
tp1296
a(F14.268523216247559
F0.4113602638244629
F2.346862554550171
tp1297
a(F14.259875297546387
F0.41111093759536743
F2.6878209114074707
tp1298
a(F0.8581995964050293
F0.07439038157463074
F-0.3364614248275757
tp1299
a(F0.920054018497467
F0.07975204288959503
F-0.336156964302063
tp1300
a(F1.0019843578338623
F0.08685391396284103
F-0.33979958295822144
tp1301
a(F1.086276650428772
F0.0941605344414711
F-0.3403263986110687
tp1302
a(F1.1704256534576416
F0.1014547273516655
F-0.33689355850219727
tp1303
a(F1.2821365594863892
F0.11113804578781128
F-0.3368408977985382
tp1304
a(F1.4135092496871948
F0.12252567708492279
F-0.33627748489379883
tp1305
a(F1.589565634727478
F0.13778658211231232
F-0.33914825320243835
tp1306
a(F1.7935631275177002
F0.15546947717666626
F-0.3390861451625824
tp1307
a(F2.0550756454467773
F0.1781378835439682
F-0.3390209972858429
tp1308
a(F2.397350311279297
F0.20780690014362335
F-0.33817416429519653
tp1309
a(F2.8859703540802
F0.25016143918037415
F-0.3385576903820038
tp1310
a(F3.609041690826416
F0.312838613986969
F-0.33813241124153137
tp1311
a(F4.823705196380615
F0.41812795400619507
F-0.33848699927330017
tp1312
a(F7.237100601196289
F0.627325713634491
F-0.338184118270874
tp1313
a(F14.491677284240723
F1.2561662197113037
F-0.3382014334201813
tp1314
a(F14.560321807861328
F1.2621164321899414
F0.00041723239701241255
tp1315
a(F14.566174507141113
F1.2626237869262695
F0.3407752513885498
tp1316
a(F14.551891326904297
F1.2613857984542847
F0.6808344125747681
tp1317
a(F14.551916122436523
F1.261387825012207
F1.021968960762024
tp1318
a(F14.556196212768555
F1.261758804321289
F1.3646166324615479
tp1319
a(F14.536005020141602
F1.2600085735321045
F1.7060858011245728
tp1320
a(F14.560578346252441
F1.2621387243270874
F2.0547902584075928
tp1321
a(F14.558255195617676
F1.2619373798370361
F2.4024980068206787
tp1322
a(F14.56232738494873
F1.262290358543396
F2.7539780139923096
tp1323
a(F0.854410707950592
F0.1239883154630661
F-0.33722013235092163
tp1324
a(F0.9248927235603333
F0.13421635329723358
F-0.34018877148628235
tp1325
a(F0.999027669429779
F0.1449744999408722
F-0.3410666286945343
tp1326
a(F1.0681220293045044
F0.15500116348266602
F-0.33688050508499146
tp1327
a(F1.1644787788391113
F0.16898402571678162
F-0.3374273478984833
tp1328
a(F1.278207778930664
F0.18548786640167236
F-0.3380584418773651
tp1329
a(F1.4252268075942993
F0.20682263374328613
F-0.3413366675376892
tp1330
a(F1.5701080560684204
F0.227847158908844
F-0.3372410833835602
tp1331
a(F1.7800482511520386
F0.25831276178359985
F-0.3387856185436249
tp1332
a(F2.0255658626556396
F0.2939411699771881
F-0.3363914489746094
tp1333
a(F2.391021966934204
F0.34697458148002625
F-0.33954110741615295
tp1334
a(F2.8497586250305176
F0.4135444164276123
F-0.336549311876297
tp1335
a(F3.595313787460327
F0.5217360854148865
F-0.3391028940677643
tp1336
a(F4.798305511474609
F0.696308970451355
F-0.3389604091644287
tp1337
a(F7.191378593444824
F1.0435811281204224
F-0.33829888701438904
tp1338
a(F14.394468307495117
F2.0888617038726807
F-0.33818334341049194
tp1339
a(F14.86318588256836
F2.1568801403045654
F0.0004287644987925887
tp1340
a(F14.875515937805176
F2.1586694717407227
F0.3503437936306
tp1341
a(F14.877922058105469
F2.1590185165405273
F0.7007517218589783
tp1342
a(F14.862005233764648
F2.1567087173461914
F1.05073881149292
tp1343
a(F14.86138916015625
F2.1566193103790283
F1.402561902999878
tp1344
a(F14.86766529083252
F2.1575300693511963
F1.7567033767700195
tp1345
a(F14.862031936645508
F2.156712532043457
F2.111382246017456
tp1346
a(F14.84951114654541
F2.154895782470703
F2.466980457305908
tp1347
a(F14.878716468811035
F2.1591336727142334
F2.8326632976531982
tp1348
a(F0.8614615797996521
F0.17620009183883667
F-0.34344473481178284
tp1349
a(F0.9031731486320496
F0.1847316175699234
F-0.3355627954006195
tp1350
a(F0.9736371040344238
F0.19914405047893524
F-0.3357631266117096
tp1351
a(F1.07162606716156
F0.21918636560440063
F-0.34140703082084656
tp1352
a(F1.1579818725585938
F0.23684924840927124
F-0.33894142508506775
tp1353
a(F1.2547507286071777
F0.2566419839859009
F-0.33521386981010437
tp1354
a(F1.4010788202285767
F0.28657135367393494
F-0.3389500379562378
tp1355
a(F1.557802438735962
F0.3186270296573639
F-0.3379850387573242
tp1356
a(F1.7424466609954834
F0.3563934564590454
F-0.33498615026474
tp1357
a(F2.009218215942383
F0.4109579026699066
F-0.3370542824268341
tp1358
a(F2.3611879348754883
F0.4829484522342682
F-0.3386986553668976
tp1359
a(F2.8364546298980713
F0.5801577568054199
F-0.33836907148361206
tp1360
a(F3.546597719192505
F0.7254077196121216
F-0.3378942608833313
tp1361
a(F4.743219375610352
F0.9701601266860962
F-0.3384608328342438
tp1362
a(F7.121047496795654
F1.456512212753296
F-0.33838140964508057
tp1363
a(F14.251720428466797
F2.9149930477142334
F-0.3382190465927124
tp1364
a(F15.205045700073242
F3.10998272895813
F0.00044306638301350176
tp1365
a(F15.194973945617676
F3.1079225540161133
F0.3614901900291443
tp1366
a(F15.211602210998535
F3.111323595046997
F0.7237207293510437
tp1367
a(F15.20842456817627
F3.110673666000366
F1.0861148834228516
tp1368
a(F15.20264720916748
F3.109492063522339
F1.4492923021316528
tp1369
a(F15.205925941467285
F3.1101627349853516
F1.8148581981658936
tp1370
a(F15.196154594421387
F3.108164072036743
F2.1807031631469727
tp1371
a(F15.202739715576172
F3.109510898590088
F2.55122971534729
tp1372
a(F15.201835632324219
F3.109326124191284
F2.9234771728515625
tp1373
a(F0.8402032256126404
F0.22297005355358124
F-0.3395344614982605
tp1374
a(F0.8898199200630188
F0.23613715171813965
F-0.3351069688796997
tp1375
a(F0.9748072624206543
F0.2586907744407654
F-0.3407479226589203
tp1376
a(F1.055651068687439
F0.2801448106765747
F-0.34090089797973633
tp1377
a(F1.1424024105072021
F0.30316656827926636
F-0.33893823623657227
tp1378
a(F1.2466075420379639
F0.33082014322280884
F-0.3375769853591919
tp1379
a(F1.3723978996276855
F0.36420193314552307
F-0.33653613924980164
tp1380
a(F1.5434828996658325
F0.4096038341522217
F-0.3394419252872467
tp1381
a(F1.7408322095870972
F0.46197566390037537
F-0.33923670649528503
tp1382
a(F1.9861351251602173
F0.5270732641220093
F-0.3377225995063782
tp1383
a(F2.3230791091918945
F0.6164901852607727
F-0.3377734422683716
tp1384
a(F2.7942583560943604
F0.7415300011634827
F-0.3378779888153076
tp1385
a(F3.503284215927124
F0.9296886920928955
F-0.3383162021636963
tp1386
a(F4.676916599273682
F1.241142988204956
F-0.33827775716781616
tp1387
a(F7.0154876708984375
F1.8617444038391113
F-0.33790841698646545
tp1388
a(F14.069215774536133
F3.7336368560791016
F-0.33843809366226196
tp1389
a(F15.560462951660156
F4.129378318786621
F0.0004596022190526128
tp1390
a(F15.566720962524414
F4.131039619445801
F0.3753809928894043
tp1391
a(F15.555139541625977
F4.127965927124023
F0.750150740146637
tp1392
a(F15.556265830993652
F4.128264904022217
F1.1260960102081299
tp1393
a(F15.552677154541016
F4.127312660217285
F1.5028667449951172
tp1394
a(F15.565234184265137
F4.130644798278809
F1.8830595016479492
tp1395
a(F15.562379837036133
F4.129887104034424
F2.2636923789978027
tp1396
a(F15.539229393005371
F4.123744010925293
F2.6432347297668457
tp1397
a(F15.555191040039062
F4.127979278564453
F3.032198190689087
tp1398
a(F0.8261361718177795
F0.27106261253356934
F-0.33960607647895813
tp1399
a(F0.8872862458229065
F0.2911264896392822
F-0.3399142622947693
tp1400
a(F0.9492484331130981
F0.3114568293094635
F-0.3375348448753357
tp1401
a(F1.0332518815994263
F0.33901911973953247
F-0.3394206464290619
tp1402
a(F1.1256088018417358
F0.3693222105503082
F-0.33971381187438965
tp1403
a(F1.238084316253662
F0.4062264561653137
F-0.3410496413707733
tp1404
a(F1.3571006059646606
F0.44527673721313477
F-0.33852288126945496
tp1405
a(F1.510513424873352
F0.49561285972595215
F-0.3379189372062683
tp1406
a(F1.7057061195373535
F0.5596573352813721
F-0.33812278509140015
tp1407
a(F1.949807047843933
F0.6397489905357361
F-0.3372618854045868
tp1408
a(F2.2957675457000732
F0.7532616853713989
F-0.33955779671669006
tp1409
a(F2.7560935020446777
F0.9042987823486328
F-0.3390093147754669
tp1410
a(F3.4219324588775635
F1.122766375541687
F-0.33615776896476746
tp1411
a(F4.599828720092773
F1.509244680404663
F-0.3384385108947754
tp1412
a(F6.907107353210449
F2.2662832736968994
F-0.3384243845939636
tp1413
a(F13.823756217956543
F4.535696983337402
F-0.338267058134079
tp1414
a(F15.944080352783203
F5.231394290924072
F0.0004790528037119657
tp1415
a(F15.947064399719238
F5.232373237609863
F0.39118316769599915
tp1416
a(F15.940930366516113
F5.230360984802246
F0.7820104956626892
tp1417
a(F15.941701889038086
F5.230613708496094
F1.1738945245742798
tp1418
a(F15.942008018493652
F5.230714321136475
F1.567049264907837
tp1419
a(F15.935619354248047
F5.228618144989014
F1.9611085653305054
tp1420
a(F15.938676834106445
F5.229620933532715
F2.358402729034424
tp1421
a(F15.935809135437012
F5.228680610656738
F2.7574310302734375
tp1422
a(F15.934245109558105
F5.2281670570373535
F3.1596429347991943
tp1423
a(F0.8193312883377075
F0.3222125768661499
F-0.3438802659511566
tp1424
a(F0.8644734621047974
F0.3399653136730194
F-0.33812806010246277
tp1425
a(F0.9282533526420593
F0.3650475740432739
F-0.33699944615364075
tp1426
a(F1.0107494592666626
F0.3974902331829071
F-0.33899980783462524
tp1427
a(F1.1052604913711548
F0.4346579313278198
F-0.3405762016773224
tp1428
a(F1.2054396867752075
F0.47405463457107544
F-0.33902889490127563
tp1429
a(F1.324420690536499
F0.5208454728126526
F-0.3373073935508728
tp1430
a(F1.477148175239563
F0.5809075236320496
F-0.3373928964138031
tp1431
a(F1.676632046699524
F0.6593571305274963
F-0.3393375277519226
tp1432
a(F1.9108854532241821
F0.7514803409576416
F-0.3374692499637604
tp1433
a(F2.2421672344207764
F0.8817611336708069
F-0.3385927975177765
tp1434
a(F2.6961917877197266
F1.060312032699585
F-0.338604211807251
tp1435
a(F3.3646352291107178
F1.3231861591339111
F-0.33746880292892456
tp1436
a(F4.505135536193848
F1.771702527999878
F-0.338430792093277
tp1437
a(F6.77187967300415
F2.6631288528442383
F-0.338765025138855
tp1438
a(F13.540261268615723
F5.3248820304870605
F-0.338286429643631
tp1439
a(F16.363618850708008
F6.435203552246094
F0.0005019808886572719
tp1440
a(F16.357149124145508
F6.432659149169922
F0.40966692566871643
tp1441
a(F16.365468978881836
F6.435931205749512
F0.8196930289268494
tp1442
a(F16.363780975341797
F6.435267448425293
F1.2302743196487427
tp1443
a(F16.369184494018555
F6.437392711639404
F1.642822265625
tp1444
a(F16.36471176147461
F6.435633182525635
F2.0561978816986084
tp1445
a(F16.351709365844727
F6.430520534515381
F2.4703176021575928
tp1446
a(F16.359615325927734
F6.433629512786865
F2.89019775390625
tp1447
a(F16.361440658569336
F6.434347629547119
F3.3124704360961914
tp1448
a(F0.7810303568840027
F0.36040082573890686
F-0.33597514033317566
tp1449
a(F0.8475944995880127
F0.39111635088920593
F-0.33978888392448425
tp1450
a(F0.9075987935066223
F0.41880491375923157
F-0.33771321177482605
tp1451
a(F0.987873911857605
F0.45584729313850403
F-0.33958539366722107
tp1452
a(F1.0735573768615723
F0.4953853189945221
F-0.33905208110809326
tp1453
a(F1.1683473587036133
F0.5391255021095276
F-0.33678656816482544
tp1454
a(F1.2834556102752686
F0.5922413468360901
F-0.3350211977958679
tp1455
a(F1.4487042427062988
F0.6684941649436951
F-0.33914321660995483
tp1456
a(F1.6355369091033936
F0.7547067403793335
F-0.3392704427242279
tp1457
a(F1.8587919473648071
F0.8577261567115784
F-0.33645099401474
tp1458
a(F2.179123640060425
F1.0055408477783203
F-0.3372741937637329
tp1459
a(F2.6261394023895264
F1.2118130922317505
F-0.33802658319473267
tp1460
a(F3.293034553527832
F1.5195469856262207
F-0.33851930499076843
tp1461
a(F4.397835731506348
F2.0293495655059814
F-0.3386043310165405
tp1462
a(F6.5892333984375
F3.0405542850494385
F-0.337843656539917
tp1463
a(F13.221935272216797
F6.101166725158691
F-0.3385665714740753
tp1464
a(F16.80255126953125
F7.753416061401367
F0.0005282926722429693
tp1465
a(F16.809240341186523
F7.756502628326416
F0.4314822554588318
tp1466
a(F16.83321189880371
F7.767564296722412
F0.8641344904899597
tp1467
a(F16.825754165649414
F7.76412296295166
F1.2965353727340698
tp1468
a(F16.82280158996582
F7.762760639190674
F1.7304273843765259
tp1469
a(F16.824392318725586
F7.76349401473999
F2.1666436195373535
tp1470
a(F16.826160430908203
F7.764309883117676
F2.6053502559661865
tp1471
a(F16.81697654724121
F7.760072708129883
F3.045046329498291
tp1472
a(F16.819339752197266
F7.761162757873535
F3.490043878555298
tp1473
a(F0.7518467903137207
F0.40099984407424927
F-0.3328220248222351
tp1474
a(F0.8146921992301941
F0.4345186650753021
F-0.33609193563461304
tp1475
a(F0.8847495317459106
F0.47188395261764526
F-0.33878016471862793
tp1476
a(F0.9542058110237122
F0.508928656578064
F-0.3375459909439087
tp1477
a(F1.039823293685913
F0.554593026638031
F-0.33794358372688293
tp1478
a(F1.1475703716278076
F0.6120603084564209
F-0.34041258692741394
tp1479
a(F1.266663908958435
F0.6755791902542114
F-0.3402485251426697
tp1480
a(F1.3990205526351929
F0.7461720108985901
F-0.33703184127807617
tp1481
a(F1.591304063796997
F0.8487270474433899
F-0.3396896421909332
tp1482
a(F1.8218889236450195
F0.9717101454734802
F-0.3393566906452179
tp1483
a(F2.109138250350952
F1.1249154806137085
F-0.335930734872818
tp1484
a(F2.554250717163086
F1.362317681312561
F-0.33832964301109314
tp1485
a(F3.1923069953918457
F1.7026269435882568
F-0.33770328760147095
tp1486
a(F4.273067951202393
F2.2790541648864746
F-0.33856087923049927
tp1487
a(F6.416012763977051
F3.4220006465911865
F-0.33852407336235046
tp1488
a(F12.832767486572266
F6.844396591186523
F-0.338152676820755
tp1489
a(F17.345796585083008
F9.251435279846191
F0.0005612250533886254
tp1490
a(F17.341949462890625
F9.249383926391602
F0.4580957293510437
tp1491
a(F17.3435001373291
F9.250210762023926
F0.9162089824676514
tp1492
a(F17.334625244140625
F9.245476722717285
F1.37457275390625
tp1493
a(F17.348594665527344
F9.252927780151367
F1.8363810777664185
tp1494
a(F17.33367156982422
F9.24496841430664
F2.297111988067627
tp1495
a(F17.321788787841797
F9.238630294799805
F2.760052442550659
tp1496
a(F17.328514099121094
F9.242217063903809
F3.2288715839385986
tp1497
a(F17.33763313293457
F9.24708080291748
F3.702160358428955
tp1498
a(F0.7322412133216858
F0.4465431571006775
F-0.33499306440353394
tp1499
a(F0.7832499742507935
F0.47764986753463745
F-0.333936482667923
tp1500
a(F0.8654658198356628
F0.5277876257896423
F-0.3424889147281647
tp1501
a(F0.9364587664604187
F0.571081280708313
F-0.34235647320747375
tp1502
a(F1.0069148540496826
F0.6140475869178772
F-0.3382021486759186
tp1503
a(F1.1025148630142212
F0.6723474264144897
F-0.3379945158958435
tp1504
a(F1.2165968418121338
F0.7419180870056152
F-0.3377384543418884
tp1505
a(F1.3588366508483887
F0.8286603093147278
F-0.3383086323738098
tp1506
a(F1.5326695442199707
F0.9346689581871033
F-0.33812448382377625
tp1507
a(F1.75342857837677
F1.0692945718765259
F-0.33753713965415955
tp1508
a(F2.0586862564086914
F1.2554501295089722
F-0.3388705551624298
tp1509
a(F2.464205741882324
F1.5027482509613037
F-0.3373280465602875
tp1510
a(F3.0894949436187744
F1.8840688467025757
F-0.3377668857574463
tp1511
a(F4.127838134765625
F2.517282485961914
F-0.3380014896392822
tp1512
a(F6.202754020690918
F3.7826297283172607
F-0.33822667598724365
tp1513
a(F12.413166999816895
F7.569930076599121
F-0.3380446434020996
tp1514
a(F17.923513412475586
F10.93030834197998
F0.0005993284867145121
tp1515
a(F17.924522399902344
F10.930923461914062
F0.4893333911895752
tp1516
a(F17.929615020751953
F10.934029579162598
F0.9788761138916016
tp1517
a(F17.919185638427734
F10.927669525146484
F1.468488335609436
tp1518
a(F17.924110412597656
F10.930672645568848
F1.9608081579208374
tp1519
a(F17.933565139770508
F10.93643856048584
F2.456162929534912
tp1520
a(F17.93035125732422
F10.934478759765625
F2.9526526927948
tp1521
a(F17.92841148376465
F10.933295249938965
F3.452472448348999
tp1522
a(F17.91234016418457
F10.923494338989258
F3.9529080390930176
tp1523
a(F0.7196634411811829
F0.4979260265827179
F-0.3418157994747162
tp1524
a(F0.7641409039497375
F0.5286993980407715
F-0.338234543800354
tp1525
a(F0.8282828330993652
F0.573078453540802
F-0.34029558300971985
tp1526
a(F0.8929734826087952
F0.6178370714187622
F-0.33892956376075745
tp1527
a(F0.9751891493797302
F0.6747210621833801
F-0.3400583863258362
tp1528
a(F1.0719534158706665
F0.7416709661483765
F-0.34117889404296875
tp1529
a(F1.1773221492767334
F0.8145743012428284
F-0.339320570230484
tp1530
a(F1.3051589727401733
F0.9030229449272156
F-0.33735740184783936
tp1531
a(F1.4675089120864868
F1.0153509378433228
F-0.3361165225505829
tp1532
a(F1.6882438659667969
F1.168074607849121
F-0.3374035656452179
tp1533
a(F1.9890018701553345
F1.3761652708053589
F-0.33990681171417236
tp1534
a(F2.3772294521331787
F1.6447750329971313
F-0.33785292506217957
tp1535
a(F2.977742910385132
F2.060262680053711
F-0.3379853069782257
tp1536
a(F3.974665403366089
F2.750020742416382
F-0.33789172768592834
tp1537
a(F5.971800327301025
F4.131813049316406
F-0.3380723297595978
tp1538
a(F11.978171348571777
F8.287545204162598
F-0.3386593461036682
tp1539
a(F18.592859268188477
F12.864164352416992
F0.0006454595131799579
tp1540
a(F18.593488693237305
F12.86460018157959
F0.5269861221313477
tp1541
a(F18.600868225097656
F12.869705200195312
F1.054316520690918
tp1542
a(F18.609981536865234
F12.876011848449707
F1.5833584070205688
tp1543
a(F18.595569610595703
F12.866039276123047
F2.111971139907837
tp1544
a(F18.585264205932617
F12.858908653259277
F2.6426539421081543
tp1545
a(F18.604951858520508
F12.87253189086914
F3.180776596069336
tp1546
a(F18.611080169677734
F12.876770973205566
F3.7208402156829834
tp1547
a(F18.592601776123047
F12.86398696899414
F4.259764671325684
tp1548
a(F0.6797927021980286
F0.5307611227035522
F-0.3368658721446991
tp1549
a(F0.7268849015235901
F0.5675293207168579
F-0.3356819450855255
tp1550
a(F0.7802814841270447
F0.6092196702957153
F-0.3344619572162628
tp1551
a(F0.8532516956329346
F0.6661925911903381
F-0.3378826379776001
tp1552
a(F0.9220849275588989
F0.7199354767799377
F-0.3354697525501251
tp1553
a(F1.023438572883606
F0.7990692257881165
F-0.3398488759994507
tp1554
a(F1.1333465576171875
F0.8848820328712463
F-0.34079673886299133
tp1555
a(F1.260257363319397
F0.983970046043396
F-0.33986300230026245
tp1556
a(F1.4228229522705078
F1.1108962297439575
F-0.33999913930892944
tp1557
a(F1.6202178001403809
F1.2650160789489746
F-0.3378358483314514
tp1558
a(F1.8907958269119263
F1.4762749671936035
F-0.33712202310562134
tp1559
a(F2.283674478530884
F1.7830226421356201
F-0.33861684799194336
tp1560
a(F2.84852933883667
F2.224043846130371
F-0.33732548356056213
tp1561
a(F3.8183395862579346
F2.9812417030334473
F-0.3386642336845398
tp1562
a(F5.724301338195801
F4.469357967376709
F-0.3380995988845825
tp1563
a(F11.47170352935791
F8.956751823425293
F-0.3383905589580536
tp1564
a(F19.383556365966797
F15.134081840515137
F0.0007020597695372999
tp1565
a(F19.381412506103516
F15.13240909576416
F0.5731146931648254
tp1566
a(F19.386619567871094
F15.136474609375
F1.1464568376541138
tp1567
a(F19.392662048339844
F15.141191482543945
F1.7214266061782837
tp1568
a(F19.384750366210938
F15.135015487670898
F2.2969765663146973
tp1569
a(F19.389387130737305
F15.138635635375977
F2.87642765045166
tp1570
a(F19.384702682495117
F15.134977340698242
F3.4576542377471924
tp1571
a(F19.388671875
F15.138076782226562
F4.044225215911865
tp1572
a(F19.386363983154297
F15.136274337768555
F4.634037971496582
tp1573
a(F0.6509382724761963
F0.5715487003326416
F-0.33834874629974365
tp1574
a(F0.7061433792114258
F0.620020866394043
F-0.3420577943325043
tp1575
a(F0.7513377070426941
F0.6597031950950623
F-0.33781182765960693
tp1576
a(F0.8172159790992737
F0.7175468802452087
F-0.3394453227519989
tp1577
a(F0.8900447487831116
F0.7814933061599731
F-0.33965539932250977
tp1578
a(F0.967941403388977
F0.8498895168304443
F-0.33714550733566284
tp1579
a(F1.0760776996612549
F0.9448373317718506
F-0.339406818151474
tp1580
a(F1.1939303874969482
F1.048316478729248
F-0.3377286493778229
tp1581
a(F1.3464956283569336
F1.182274580001831
F-0.33750179409980774
tp1582
a(F1.5485708713531494
F1.3597043752670288
F-0.33869412541389465
tp1583
a(F1.8026905059814453
F1.5828311443328857
F-0.33713817596435547
tp1584
a(F2.1708168983459473
F1.9060602188110352
F-0.33763059973716736
tp1585
a(F2.7173542976379395
F2.3859407901763916
F-0.3375350832939148
tp1586
a(F3.621532917022705
F3.179844379425049
F-0.33692362904548645
tp1587
a(F5.458858966827393
F4.793086528778076
F-0.3381958305835724
tp1588
a(F10.921967506408691
F9.58990478515625
F-0.33793678879737854
tp1589
a(F20.326139450073242
F17.84712791442871
F0.0007722176960669458
tp1590
a(F20.32715606689453
F17.848020553588867
F0.6304882168769836
tp1591
a(F20.346574783325195
F17.865070343017578
F1.2620924711227417
tp1592
a(F20.333009719848633
F17.853158950805664
F1.8932020664215088
tp1593
a(F20.32355308532715
F17.84485626220703
F2.5260398387908936
tp1594
a(F20.32573699951172
F17.846773147583008
F3.1628596782684326
tp1595
a(F20.33781623840332
F17.857379913330078
F3.805142641067505
tp1596
a(F20.319856643676758
F17.841609954833984
F4.445822715759277
tp1597
a(F20.338375091552734
F17.85787010192871
F5.099454402923584
tp1598
a(F0.6203453540802002
F0.6114686131477356
F-0.34022238850593567
tp1599
a(F0.6638087034225464
F0.6543099880218506
F-0.3392767310142517
tp1600
a(F0.7171149253845215
F0.7068533897399902
F-0.34019896388053894
tp1601
a(F0.7678855061531067
F0.756897509098053
F-0.3365379273891449
tp1602
a(F0.8386433720588684
F0.8266428709030151
F-0.3376825153827667
tp1603
a(F0.9194287657737732
F0.906272292137146
F-0.33790215849876404
tp1604
a(F1.0169529914855957
F1.0024009943008423
F-0.33844056725502014
tp1605
a(F1.1277209520339966
F1.111583948135376
F-0.33658528327941895
tp1606
a(F1.2778935432434082
F1.2596076726913452
F-0.3379639983177185
tp1607
a(F1.4690419435501099
F1.4480208158493042
F-0.3390122056007385
tp1608
a(F1.7059932947158813
F1.6815814971923828
F-0.3366422653198242
tp1609
a(F2.0610649585723877
F2.0315723419189453
F-0.3382321000099182
tp1610
a(F2.5932083129882812
F2.556100845336914
F-0.3398714065551758
tp1611
a(F3.4524357318878174
F3.403033494949341
F-0.3388981521129608
tp1612
a(F5.1819000244140625
F5.107749938964844
F-0.3387349247932434
tp1613
a(F10.369715690612793
F10.221330642700195
F-0.3385368883609772
tp1614
a(F42.87498474121094
F42.261470794677734
F0.0017186736222356558
tp1615
a(F42.88435363769531
F42.27070617675781
F1.4034721851348877
tp1616
a(F42.87700653076172
F42.26346206665039
F2.8062663078308105
tp1617
a(F42.87250518798828
F42.25902557373047
F4.211906909942627
tp1618
a(F42.87837219238281
F42.26480484008789
F5.623198509216309
tp1619
a(F42.88365173339844
F42.27001190185547
F7.040928363800049
tp1620
a(F42.87395095825195
F42.26045227050781
F8.463787078857422
tp1621
a(F42.87663269042969
F42.263092041015625
F9.898211479187012
tp1622
a(F42.874969482421875
F42.26145553588867
F11.34268569946289
tp1623
a(F0.5774105787277222
F0.6388058066368103
F-0.33633339405059814
tp1624
a(F0.6267011165618896
F0.6933373808860779
F-0.3401947021484375
tp1625
a(F0.6697051525115967
F0.7409139275550842
F-0.33743008971214294
tp1626
a(F0.726313054561615
F0.8035408854484558
F-0.3380782902240753
tp1627
a(F0.7951751351356506
F0.8797249794006348
F-0.3400556445121765
tp1628
a(F0.8607484698295593
F0.9522706270217896
F-0.33597350120544434
tp1629
a(F0.9566646218299866
F1.0583853721618652
F-0.33814045786857605
tp1630
a(F1.0750995874404907
F1.18941330909729
F-0.34079882502555847
tp1631
a(F1.209706425666809
F1.3383327722549438
F-0.33979082107543945
tp1632
a(F1.382977843284607
F1.530027985572815
F-0.33896300196647644
tp1633
a(F1.6128137111663818
F1.7843018770217896
F-0.3380114734172821
tp1634
a(F1.9374489784240723
F2.1434550285339355
F-0.3376831114292145
tp1635
a(F2.4347550868988037
F2.693639039993286
F-0.3389131724834442
tp1636
a(F3.24153995513916
F3.5862083435058594
F-0.3379487991333008
tp1637
a(F4.870760917663574
F5.388661861419678
F-0.3381611108779907
tp1638
a(F9.75056266784668
F10.787325859069824
F-0.3380841016769409
tp1639
a(F45.44279479980469
F50.274662017822266
F0.0019346855115145445
tp1640
a(F45.45029067993164
F50.282955169677734
F1.5797832012176514
tp1641
a(F45.459598541259766
F50.293251037597656
F3.15999174118042
tp1642
a(F45.44062805175781
F50.27226638793945
F4.741329669952393
tp1643
a(F45.45204544067383
F50.28489685058594
F6.330739974975586
tp1644
a(F45.455345153808594
F50.28854751586914
F7.926455974578857
tp1645
a(F45.44042205810547
F50.272037506103516
F9.527292251586914
tp1646
a(F45.453834533691406
F50.2868766784668
F11.144549369812012
tp1647
a(F45.45101547241211
F50.28376007080078
F12.770607948303223
tp1648
a(F0.5462573170661926
F0.6792278289794922
F-0.3404521942138672
tp1649
a(F0.5800652503967285
F0.7212653160095215
F-0.3369128108024597
tp1650
a(F0.630266547203064
F0.783686637878418
F-0.33978015184402466
tp1651
a(F0.6774054169654846
F0.8423001170158386
F-0.3373771905899048
tp1652
a(F0.7386625409126282
F0.9184685945510864
F-0.3379923403263092
tp1653
a(F0.8119090795516968
F1.009544849395752
F-0.3390859365463257
tp1654
a(F0.8916792869567871
F1.10873281955719
F-0.33722496032714844
tp1655
a(F0.9993106126785278
F1.2425638437271118
F-0.3389405310153961
tp1656
a(F1.1284021139144897
F1.4030789136886597
F-0.33913230895996094
tp1657
a(F1.2893251180648804
F1.6031739711761475
F-0.3381217420101166
tp1658
a(F1.5144108533859253
F1.8830503225326538
F-0.33959755301475525
tp1659
a(F1.8073952198028564
F2.2473533153533936
F-0.3370589315891266
tp1660
a(F2.259999990463257
F2.810131549835205
F-0.3366008400917053
tp1661
a(F3.0361366271972656
F3.775196075439453
F-0.3386838138103485
tp1662
a(F4.549761772155762
F5.657269477844238
F-0.3379785716533661
tp1663
a(F9.125202178955078
F11.346467971801758
F-0.3385409116744995
tp1664
a(F49.34353256225586
F61.35478591918945
F0.00224775611422956
tp1665
a(F49.34070587158203
F61.35127258300781
F1.835015892982483
tp1666
a(F49.348514556884766
F61.36098098754883
F3.6703546047210693
tp1667
a(F49.339420318603516
F61.349674224853516
F5.5083746910095215
tp1668
a(F49.337406158447266
F61.347171783447266
F7.3527703285217285
tp1669
a(F49.347633361816406
F61.35988235473633
F9.20733642578125
tp1670
a(F49.344703674316406
F61.35624313354492
F11.069838523864746
tp1671
a(F49.3483772277832
F61.360809326171875
F12.946084976196289
tp1672
a(F0.5004090070724487
F0.7014275789260864
F-0.3365451395511627
tp1673
a(F0.5442133545875549
F0.762828528881073
F-0.34109020233154297
tp1674
a(F0.579889714717865
F0.8128363490104675
F-0.3373483121395111
tp1675
a(F0.6276350021362305
F0.8797613382339478
F-0.33731338381767273
tp1676
a(F0.6869187951087952
F0.9628599286079407
F-0.33917632699012756
tp1677
a(F0.750230073928833
F1.05160391330719
F-0.3381085991859436
tp1678
a(F0.8335912227630615
F1.1684519052505493
F-0.3401915431022644
tp1679
a(F0.92561274766922
F1.2974392175674438
F-0.33877524733543396
tp1680
a(F1.0469154119491577
F1.4674702882766724
F-0.33952847123146057
tp1681
a(F1.1917908191680908
F1.6705434322357178
F-0.3372640609741211
tp1682
a(F1.3973033428192139
F1.9586119651794434
F-0.3381200134754181
tp1683
a(F1.6917091608047485
F2.3712830543518066
F-0.34043776988983154
tp1684
a(F2.112788677215576
F2.9615137577056885
F-0.33956441283226013
tp1685
a(F2.8106768131256104
F3.9397494792938232
F-0.33833223581314087
tp1686
a(F4.2194437980651855
F5.914430618286133
F-0.33823227882385254
tp1687
a(F8.445659637451172
F11.83835220336914
F-0.3381127715110779
tp1688
a(F61.45610046386719
F86.14353942871094
F0.003020948264747858
tp1689
a(F61.464256286621094
F86.15496826171875
F2.466700553894043
tp1690
a(F61.45832061767578
F86.14665222167969
F4.932578086853027
tp1691
a(F61.4542350769043
F86.14092254638672
F7.403559684753418
tp1692
a(F61.45085525512695
F86.13618469238281
F9.882389068603516
tp1693
a(F61.457359313964844
F86.14530181884766
F12.373739242553711
tp1694
a(F61.46146011352539
F86.15105438232422
F14.878630638122559
tp1695
a(F61.461185455322266
F86.15066528320312
F17.399063110351562
tp1696
a(F0.4528709650039673
F0.719094455242157
F-0.3319302797317505
tp1697
a(F0.5003674626350403
F0.7945120930671692
F-0.34177735447883606
tp1698
a(F0.527599573135376
F0.8377528786659241
F-0.3344966769218445
tp1699
a(F0.5770111083984375
F0.9162112474441528
F-0.3379596173763275
tp1700
a(F0.633919358253479
F1.0065734386444092
F-0.3411209285259247
tp1701
a(F0.6931225657463074
F1.1005797386169434
F-0.34042856097221375
tp1702
a(F0.7594030499458313
F1.2058236598968506
F-0.33775120973587036
tp1703
a(F0.8545324206352234
F1.3568755388259888
F-0.34085142612457275
tp1704
a(F0.959842324256897
F1.524092674255371
F-0.3392491340637207
tp1705
a(F1.095971941947937
F1.7402470111846924
F-0.338005393743515
tp1706
a(F1.2728992700576782
F2.0211822986602783
F-0.33568230271339417
tp1707
a(F1.5444203615188599
F2.4523191452026367
F-0.3387129306793213
tp1708
a(F1.9326938390731812
F3.0688419342041016
F-0.33851927518844604
tp1709
a(F2.5781667232513428
F4.0937604904174805
F-0.3382187485694885
tp1710
a(F3.8733654022216797
F6.150351524353027
F-0.33837831020355225
tp1711
a(F7.756263256072998
F12.315838813781738
F-0.3384034335613251
tp1712
a(F55.502166748046875
F88.1295166015625
F0.002973325550556183
tp1713
a(F55.49911117553711
F88.12466430664062
F2.427359104156494
tp1714
a(F55.51968765258789
F88.15734100341797
F4.85617733001709
tp1715
a(F55.5064811706543
F88.13636779785156
F7.287635803222656
tp1716
a(F55.50736999511719
F88.13777923583984
F9.72834300994873
tp1717
a(F55.503108978271484
F88.13101959228516
F12.178634643554688
tp1718
a(F55.50067138671875
F88.12714385986328
F14.642409324645996
tp1719
a(F55.51118850708008
F88.14384460449219
F17.126148223876953
tp1720
a(F55.502220153808594
F88.12960815429688
F19.623004913330078
tp1721
a(F0.4159442186355591
F0.7535085678100586
F-0.3361766040325165
tp1722
a(F0.456520676612854
F0.8270152807235718
F-0.34385445713996887
tp1723
a(F0.48711779713630676
F0.882443904876709
F-0.34055036306381226
tp1724
a(F0.52154141664505
F0.9448044300079346
F-0.33684447407722473
tp1725
a(F0.5750372409820557
F1.041715383529663
F-0.34121671319007874
tp1726
a(F0.619120180606842
F1.1215742826461792
F-0.3353133797645569
tp1727
a(F0.6827815175056458
F1.236900806427002
F-0.3348623514175415
tp1728
a(F0.77135169506073
F1.3973511457443237
F-0.33927276730537415
tp1729
a(F0.8742664456367493
F1.5837875604629517
F-0.3407396078109741
tp1730
a(F0.9985573291778564
F1.808948040008545
F-0.3395918011665344
tp1731
a(F1.1626747846603394
F2.1062569618225098
F-0.33810582756996155
tp1732
a(F1.3997942209243774
F2.535813570022583
F-0.3385247588157654
tp1733
a(F1.7507867813110352
F3.1716580390930176
F-0.33815324306488037
tp1734
a(F2.33329176902771
F4.226901531219482
F-0.3375326097011566
tp1735
a(F3.5129623413085938
F6.36394739151001
F-0.33841338753700256
tp1736
a(F7.03619384765625
F12.746498107910156
F-0.33851662278175354
tp1737
a(F49.727699279785156
F90.08479309082031
F0.002937587909400463
tp1738
a(F49.7297477722168
F90.0885009765625
F2.3984146118164062
tp1739
a(F49.72867202758789
F90.0865478515625
F4.796388626098633
tp1740
a(F49.719764709472656
F90.0704116821289
F7.198334217071533
tp1741
a(F49.72280502319336
F90.07592010498047
F9.609566688537598
tp1742
a(F49.72332763671875
F90.07687377929688
F12.03099250793457
tp1743
a(F49.72691345214844
F90.08336639404297
F14.466577529907227
tp1744
a(F49.71367263793945
F90.05937957763672
F16.912778854370117
tp1745
a(F49.716644287109375
F90.06475830078125
F19.3828182220459
tp1746
a(F0.3697459101676941
F0.771844208240509
F-0.334281325340271
tp1747
a(F0.39853575825691223
F0.8319429755210876
F-0.33578231930732727
tp1748
a(F0.42790794372558594
F0.8932573795318604
F-0.33463701605796814
tp1749
a(F0.4680742621421814
F0.9771046042442322
F-0.33816736936569214
tp1750
a(F0.5078070759773254
F1.0600467920303345
F-0.33706170320510864
tp1751
a(F0.562027096748352
F1.1732310056686401
F-0.3404940366744995
tp1752
a(F0.6172165870666504
F1.2884390354156494
F-0.338608980178833
tp1753
a(F0.6807257533073425
F1.4210143089294434
F-0.33492305874824524
tp1754
a(F0.7775144577026367
F1.623060703277588
F-0.3389718532562256
tp1755
a(F0.8911165595054626
F1.8602049350738525
F-0.33899635076522827
tp1756
a(F1.0415759086608887
F2.174288749694824
F-0.33881422877311707
tp1757
a(F1.2504279613494873
F2.610267162322998
F-0.3382682502269745
tp1758
a(F1.5594654083251953
F3.255382537841797
F-0.33692434430122375
tp1759
a(F2.093993902206421
F4.37121057510376
F-0.3388429284095764
tp1760
a(F3.1376614570617676
F6.549865245819092
F-0.33810877799987793
tp1761
a(F6.288530349731445
F13.127301216125488
F-0.33842912316322327
tp1762
a(F44.05735778808594
F91.96969604492188
F0.002911302261054516
tp1763
a(F44.05548095703125
F91.96577453613281
F2.3767542839050293
tp1764
a(F44.0540657043457
F91.96282196044922
F4.753022193908691
tp1765
a(F44.054229736328125
F91.9631576538086
F7.134555339813232
tp1766
a(F44.0552864074707
F91.96537017822266
F9.524069786071777
tp1767
a(F44.056434631347656
F91.96776580810547
F11.924137115478516
tp1768
a(F44.060203552246094
F91.97563171386719
F14.338282585144043
tp1769
a(F44.059059143066406
F91.9732437133789
F16.76681900024414
tp1770
a(F44.05846405029297
F91.97200012207031
F19.214134216308594
tp1771
a(F0.32383984327316284
F0.789853036403656
F-0.3334324061870575
tp1772
a(F0.35275158286094666
F0.8603694438934326
F-0.3384763300418854
tp1773
a(F0.37815338373184204
F0.922325074672699
F-0.3367909789085388
tp1774
a(F0.4128783941268921
F1.0070202350616455
F-0.33970966935157776
tp1775
a(F0.4447081983089447
F1.0846538543701172
F-0.3361666202545166
tp1776
a(F0.4926204979419708
F1.2015130519866943
F-0.33988621830940247
tp1777
a(F0.5387404561042786
F1.3140007257461548
F-0.3365962505340576
tp1778
a(F0.6021817922592163
F1.468735694885254
F-0.3374188244342804
tp1779
a(F0.6826444864273071
F1.66498601436615
F-0.33893662691116333
tp1780
a(F0.7825430035591125
F1.9086408615112305
F-0.3390295207500458
tp1781
a(F0.9118793606758118
F2.224095344543457
F-0.3378134071826935
tp1782
a(F1.0960066318511963
F2.6731860637664795
F-0.33766382932662964
tp1783
a(F1.3756362199783325
F3.3552093505859375
F-0.33847689628601074
tp1784
a(F1.8368288278579712
F4.480069160461426
F-0.3385013937950134
tp1785
a(F2.7566919326782227
F6.723637104034424
F-0.33830419182777405
tp1786
a(F5.521266937255859
F13.466500282287598
F-0.33839666843414307
tp1787
a(F38.471153259277344
F93.83204650878906
F0.002895161509513855
tp1788
a(F38.46995544433594
F93.82913208007812
F2.3636043071746826
tp1789
a(F38.47431564331055
F93.83976745605469
F4.727412700653076
tp1790
a(F38.47079849243164
F93.83118438720703
F7.095439434051514
tp1791
a(F38.47241973876953
F93.83514404296875
F9.472024917602539
tp1792
a(F38.47412872314453
F93.83930969238281
F11.859193801879883
tp1793
a(F38.47459411621094
F93.84044647216797
F14.259143829345703
tp1794
a(F38.47279357910156
F93.83605194091797
F16.67392921447754
tp1795
a(F38.47211456298828
F93.83439636230469
F19.10760498046875
tp1796
a(F0.2799615263938904
F0.813487708568573
F-0.33603042364120483
tp1797
a(F0.30263760685920715
F0.8793778419494629
F-0.33852049708366394
tp1798
a(F0.32752522826194763
F0.9516940712928772
F-0.34004777669906616
tp1799
a(F0.3574519157409668
F1.0386524200439453
F-0.34285151958465576
tp1800
a(F0.38509708642959595
F1.1189813613891602
F-0.3393535614013672
tp1801
a(F0.42136234045028687
F1.2243577241897583
F-0.3389061987400055
tp1802
a(F0.46812379360198975
F1.3602330684661865
F-0.34095191955566406
tp1803
a(F0.5198951959609985
F1.5106658935546875
F-0.33959415555000305
tp1804
a(F0.5866122841835022
F1.7045265436172485
F-0.33952972292900085
tp1805
a(F0.6694232225418091
F1.9451513290405273
F-0.3380903899669647
tp1806
a(F0.7808467149734497
F2.268915891647339
F-0.3372158706188202
tp1807
a(F0.9418281316757202
F2.7366816997528076
F-0.33825618028640747
tp1808
a(F1.1773618459701538
F3.421074867248535
F-0.33770549297332764
tp1809
a(F1.5764071941375732
F4.580585956573486
F-0.33865925669670105
tp1810
a(F2.3694779872894287
F6.885021686553955
F-0.33898037672042847
tp1811
a(F4.736873626708984
F13.763992309570312
F-0.3384401500225067
tp1812
a(F19.23356056213379
F55.8871955871582
F0.0016873300774022937
tp1813
a(F19.23845100402832
F55.901405334472656
F1.377926230430603
tp1814
a(F19.236249923706055
F55.8950080871582
F2.755343437194824
tp1815
a(F19.23472023010254
F55.89056396484375
F4.135582447052002
tp1816
a(F19.233402252197266
F55.88673400878906
F5.520166397094727
tp1817
a(F19.237577438354492
F55.898868560791016
F6.912569522857666
tp1818
a(F19.23573875427246
F55.893524169921875
F8.31057357788086
tp1819
a(F19.239194869995117
F55.903568267822266
F9.720170974731445
tp1820
a(F32.92851257324219
F95.6807861328125
F19.064924240112305
tp1821
a(F0.23697230219841003
F0.843726396560669
F-0.34230291843414307
tp1822
a(F0.25712093710899353
F0.9154645204544067
F-0.34612447023391724
tp1823
a(F0.270020455121994
F0.9613925218582153
F-0.33738410472869873
tp1824
a(F0.29062387347221375
F1.0347497463226318
F-0.3354690968990326
tp1825
a(F0.31833407282829285
F1.1334104537963867
F-0.337596595287323
tp1826
a(F0.3468337953090668
F1.2348819971084595
F-0.33572056889533997
tp1827
a(F0.38700029253959656
F1.3778924942016602
F-0.33921611309051514
tp1828
a(F0.4257921576499939
F1.516008734703064
F-0.33471471071243286
tp1829
a(F0.48023784160614014
F1.7098596096038818
F-0.33451518416404724
tp1830
a(F0.5567377209663391
F1.982232928276062
F-0.3383883833885193
tp1831
a(F0.6505922079086304
F2.316396713256836
F-0.3381301164627075
tp1832
a(F0.7845349907875061
F2.793292284011841
F-0.33909326791763306
tp1833
a(F0.9823570847511292
F3.497626543045044
F-0.33910197019577026
tp1834
a(F1.3069428205490112
F4.653295516967773
F-0.3378966450691223
tp1835
a(F1.9639860391616821
F6.992660999298096
F-0.33813726902008057
tp1836
a(F3.9314217567443848
F13.997603416442871
F-0.3380433917045593
tp1837
a(F11.6429443359375
F41.45404052734375
F0.001229237881489098
tp1838
a(F11.64462947845459
F41.46004104614258
F1.0037239789962769
tp1839
a(F11.64333724975586
F41.455440521240234
F2.0070841312408447
tp1840
a(F11.643745422363281
F41.45689392089844
F3.0128414630889893
tp1841
a(F11.64377498626709
F41.45699691772461
F4.021820068359375
tp1842
a(F11.64452838897705
F41.459678649902344
F5.035513401031494
tp1843
a(F11.64188003540039
F41.450252532958984
F6.053102493286133
tp1844
a(F11.641987800598145
F41.45063781738281
F7.078592300415039
tp1845
a(F11.64180850982666
F41.44999694824219
F8.111780166625977
tp1846
a(F0.18585829436779022
F0.8463612198829651
F-0.3384574055671692
tp1847
a(F0.1989876925945282
F0.9061498641967773
F-0.3376992642879486
tp1848
a(F0.21592478454113007
F0.9832779765129089
F-0.3401257395744324
tp1849
a(F0.23346495628356934
F1.0631523132324219
F-0.3397441506385803
tp1850
a(F0.2544021010398865
F1.1584959030151367
F-0.3401298224925995
tp1851
a(F0.2781250774860382
F1.2665255069732666
F-0.3393952548503876
tp1852
a(F0.30459943413734436
F1.3870844841003418
F-0.3365916609764099
tp1853
a(F0.34136685729026794
F1.5545158386230469
F-0.338304340839386
tp1854
a(F0.38714638352394104
F1.7629865407943726
F-0.33997243642807007
tp1855
a(F0.44415611028671265
F2.022597551345825
F-0.3403373062610626
tp1856
a(F0.5172770619392395
F2.3555755615234375
F-0.33892789483070374
tp1857
a(F0.6215728521347046
F2.830517530441284
F-0.33869436383247375
tp1858
a(F0.7737305760383606
F3.5234131813049316
F-0.33671289682388306
tp1859
a(F1.0392613410949707
F4.73258638381958
F-0.33873581886291504
tp1860
a(F1.557783603668213
F7.093832492828369
F-0.3381199836730957
tp1861
a(F3.121951103210449
F14.21673583984375
F-0.3384215235710144
tp1862
a(F7.277504920959473
F33.140289306640625
F0.0009686450939625502
tp1863
a(F7.2819132804870605
F33.16036605834961
F0.7913036346435547
tp1864
a(F7.279449939727783
F33.149147033691406
F1.5819607973098755
tp1865
a(F7.281602382659912
F33.15895080566406
F2.3753063678741455
tp1866
a(F7.280681133270264
F33.154754638671875
F3.1703696250915527
tp1867
a(F7.281050205230713
F33.156436920166016
F3.9694008827209473
tp1868
a(F7.282914161682129
F33.16492462158203
F4.7738542556762695
tp1869
a(F7.281113624572754
F33.15672302246094
F5.581187725067139
tp1870
a(F7.282242298126221
F33.161865234375
F6.396905422210693
tp1871
a(F0.13768310844898224
F0.8612555265426636
F-0.34066951274871826
tp1872
a(F0.14588132500648499
F0.9125382304191589
F-0.33638307452201843
tp1873
a(F0.159333273768425
F0.9966848492622375
F-0.34101539850234985
tp1874
a(F0.16862128674983978
F1.0547845363616943
F-0.33340582251548767
tp1875
a(F0.18576040863990784
F1.1619956493377686
F-0.3374485969543457
tp1876
a(F0.2043224722146988
F1.278107762336731
F-0.3387756943702698
tp1877
a(F0.22660453617572784
F1.4174898862838745
F-0.3402305841445923
tp1878
a(F0.25113824009895325
F1.5709567070007324
F-0.3381657302379608
tp1879
a(F0.2842627167701721
F1.778161644935608
F-0.3391711413860321
tp1880
a(F0.324573278427124
F2.030318260192871
F-0.3379225432872772
tp1881
a(F0.37810516357421875
F2.3651788234710693
F-0.3366101384162903
tp1882
a(F0.45587044954299927
F2.8516275882720947
F-0.33751094341278076
tp1883
a(F0.5712026357650757
F3.573070526123047
F-0.33774638175964355
tp1884
a(F0.7641382813453674
F4.77994966506958
F-0.33840659260749817
tp1885
a(F1.1463055610656738
F7.170538425445557
F-0.3380606472492218
tp1886
a(F2.3003299236297607
F14.389360427856445
F-0.3388071358203888
tp1887
a(F4.435458660125732
F27.745328903198242
F0.0008021419052965939
tp1888
a(F4.435883045196533
F27.747983932495117
F0.6549501419067383
tp1889
a(F4.434798717498779
F27.741201400756836
F1.3094881772994995
tp1890
a(F4.4348554611206055
F27.74155616760254
F1.965633749961853
tp1891
a(F4.436180114746094
F27.74984359741211
F2.6246871948242188
tp1892
a(F4.4338202476501465
F27.73508071899414
F3.2842750549316406
tp1893
a(F4.437282562255859
F27.75674057006836
F3.951951026916504
tp1894
a(F4.4360575675964355
F27.74907684326172
F4.62015438079834
tp1895
a(F4.433539867401123
F27.733327865600586
F5.291586399078369
tp1896
a(F0.08640850335359573
F0.8536562323570251
F-0.3351336419582367
tp1897
a(F0.09515772759914398
F0.9400925040245056
F-0.3439437448978424
tp1898
a(F0.10088276863098145
F0.9966519474983215
F-0.3384491801261902
tp1899
a(F0.1085251122713089
F1.072153091430664
F-0.33635663986206055
tp1900
a(F0.11882365494966507
F1.1738955974578857
F-0.33835017681121826
tp1901
a(F0.13208641111850739
F1.3049224615097046
F-0.34329167008399963
tp1902
a(F0.14370140433311462
F1.4196704626083374
F-0.3382008671760559
tp1903
a(F0.15989060699939728
F1.5796085596084595
F-0.33748045563697815
tp1904
a(F0.18022648990154266
F1.780513048171997
F-0.33707502484321594
tp1905
a(F0.20900429785251617
F2.0648179054260254
F-0.34108966588974
tp1906
a(F0.24307912588119507
F2.401453733444214
F-0.33921200037002563
tp1907
a(F0.29235270619392395
F2.888242721557617
F-0.3392833471298218
tp1908
a(F0.36486268043518066
F3.604590892791748
F-0.338172972202301
tp1909
a(F0.4869869649410248
F4.811094284057617
F-0.33805951476097107
tp1910
a(F0.7302937507629395
F7.214797019958496
F-0.3375987112522125
tp1911
a(F1.4652444124221802
F14.475601196289062
F-0.3382839858531952
tp1912
a(F2.4205329418182373
F23.913192749023438
F0.0006861714646220207
tp1913
a(F2.420891761779785
F23.916736602783203
F0.5602895617485046
tp1914
a(F2.4209952354431152
F23.91775894165039
F1.1205482482910156
tp1915
a(F2.419962167739868
F23.90755271911621
F1.6812825202941895
tp1916
a(F2.4204108715057373
F23.911985397338867
F2.244741916656494
tp1917
a(F2.420090675354004
F23.908823013305664
F2.8099725246429443
tp1918
a(F2.420397996902466
F23.91185760498047
F3.3790156841278076
tp1919
a(F2.418522596359253
F23.89333152770996
F3.9483754634857178
tp1920
a(F2.4207749366760254
F23.91558074951172
F4.528961658477783
tp1921
a(F0.03707628697156906
F0.8570337295532227
F-0.335062175989151
tp1922
a(F0.03971691057085991
F0.9180728793144226
F-0.334492564201355
tp1923
a(F0.04319252818822861
F0.9984132051467896
F-0.33763909339904785
tp1924
a(F0.04699885845184326
F1.0863981246948242
F-0.33941006660461426
tp1925
a(F0.05103008821606636
F1.179581642150879
F-0.338577002286911
tp1926
a(F0.056157346814870834
F1.2981003522872925
F-0.34007859230041504
tp1927
a(F0.06145511940121651
F1.420560598373413
F-0.3370073735713959
tp1928
a(F0.06861548870801926
F1.5860754251480103
F-0.3374547064304352
tp1929
a(F0.0771247074007988
F1.7827695608139038
F-0.3361004590988159
tp1930
a(F0.08857474476099014
F2.0474419593811035
F-0.3368145823478699
tp1931
a(F0.1036444753408432
F2.395785093307495
F-0.33700576424598694
tp1932
a(F0.12531301379203796
F2.896662473678589
F-0.3388591408729553
tp1933
a(F0.15692751109600067
F3.6274445056915283
F-0.33890360593795776
tp1934
a(F0.2095731794834137
F4.8443708419799805
F-0.338983952999115
tp1935
a(F0.3139297664165497
F7.256617069244385
F-0.33814528584480286
tp1936
a(F0.6292105913162231
F14.544463157653809
F-0.3384815454483032
tp1937
a(F0.9101386666297913
F21.038232803344727
F0.0006011693621985614
tp1938
a(F0.9098392724990845
F21.031312942504883
F0.4906473457813263
tp1939
a(F0.9095633625984192
F21.024934768676758
F0.9809282422065735
tp1940
a(F0.9105684161186218
F21.048166275024414
F1.4740504026412964
tp1941
a(F0.910628616809845
F21.049558639526367
F1.967824101448059
tp1942
a(F0.9102746248245239
F21.0413761138916
F2.4626941680908203
tp1943
a(F0.9100808501243591
F21.036895751953125
F2.960404396057129
tp1944
a(F0.9104403853416443
F21.045207977294922
F3.4632785320281982
tp1945
a(F0.9107232093811035
F21.05174446105957
F3.970071315765381
tp1946
a(F-0.01234887819737196
F0.8569282293319702
F-0.33474260568618774
tp1947
a(F-0.01343260332942009
F0.9321313500404358
F-0.3393325209617615
tp1948
a(F-0.014272640459239483
F0.9904242157936096
F-0.3346591889858246
tp1949
a(F-0.01567814312875271
F1.087956428527832
F-0.3396145701408386
tp1950
a(F-0.01692538522183895
F1.174506664276123
F-0.3368402421474457
tp1951
a(F-0.018547240644693375
F1.2870523929595947
F-0.3369041383266449
tp1952
a(F-0.020755961537361145
F1.4403225183486938
F-0.3414117693901062
tp1953
a(F-0.022716736420989037
F1.5763870477676392
F-0.3351147770881653
tp1954
a(F-0.02600925788283348
F1.8048655986785889
F-0.3399834930896759
tp1955
a(F-0.029672490432858467
F2.0590691566467285
F-0.3384459316730499
tp1956
a(F-0.034421417862176895
F2.3886125087738037
F-0.33571770787239075
tp1957
a(F-0.04188135638833046
F2.9062812328338623
F-0.33970195055007935
tp1958
a(F-0.05219675600528717
F3.6220998764038086
F-0.3381231427192688
tp1959
a(F-0.0697781965136528
F4.842132091522217
F-0.33854585886001587
tp1960
a(F-0.10475273430347443
F7.269127368927002
F-0.33844685554504395
tp1961
a(F-0.20984749495983124
F14.561988830566406
F-0.33860787749290466
tp1962
a(F-0.2707860767841339
F18.790712356567383
F0.0005365001852624118
tp1963
a(F-0.27064967155456543
F18.781248092651367
F0.43779078125953674
tp1964
a(F-0.2709161937236786
F18.799741744995117
F0.8763822317123413
tp1965
a(F-0.2708146870136261
F18.792695999145508
F1.3150014877319336
tp1966
a(F-0.2707081139087677
F18.785303115844727
F1.7546906471252441
tp1967
a(F-0.27079737186431885
F18.79149627685547
F2.197540044784546
tp1968
a(F-0.2706742584705353
F18.7829532623291
F2.641023874282837
tp1969
a(F-0.2709556818008423
F18.802480697631836
F3.091636896133423
tp1970
a(F-0.2707478106021881
F18.788055419921875
F3.540227174758911
tp1971
a(F-0.062321703881025314
F0.8634392619132996
F-0.33812838792800903
tp1972
a(F-0.06711064279079437
F0.9297879338264465
F-0.3393247425556183
tp1973
a(F-0.07166498899459839
F0.9928863644599915
F-0.33632898330688477
tp1974
a(F-0.07830629497766495
F1.084898591041565
F-0.33950579166412354
tp1975
a(F-0.0843295007944107
F1.1683474779129028
F-0.3359106183052063
tp1976
a(F-0.09315260499715805
F1.2905876636505127
F-0.3386732041835785
tp1977
a(F-0.10347598791122437
F1.4336135387420654
F-0.3406701385974884
tp1978
a(F-0.11407627910375595
F1.5804758071899414
F-0.336823046207428
tp1979
a(F-0.12914399802684784
F1.7892323732376099
F-0.33788037300109863
tp1980
a(F-0.14857757091522217
F2.0584757328033447
F-0.3391933739185333
tp1981
a(F-0.17297835648059845
F2.3965375423431396
F-0.33767277002334595
tp1982
a(F-0.2089323103427887
F2.8946635723114014
F-0.33918899297714233
tp1983
a(F-0.26133978366851807
F3.6207456588745117
F-0.3388408422470093
tp1984
a(F-0.34770119190216064
F4.817244052886963
F-0.3376469016075134
tp1985
a(F-0.5233071446418762
F7.250185966491699
F-0.3384079933166504
tp1986
a(F-1.0473519563674927
F14.510591506958008
F-0.3382554054260254
tp1987
a(F-1.2245334386825562
F16.965362548828125
F0.0004855937440879643
tp1988
a(F-1.225295066833496
F16.975914001464844
F0.39669671654701233
tp1989
a(F-1.2254074811935425
F16.97747230529785
F0.7934104800224304
tp1990
a(F-1.2250887155532837
F16.973054885864258
F1.190639853477478
tp1991
a(F-1.2244664430618286
F16.964433670043945
F1.5885649919509888
tp1992
a(F-1.2246414422988892
F16.96685791015625
F1.9891159534454346
tp1993
a(F-1.2250806093215942
F16.972942352294922
F2.3924829959869385
tp1994
a(F-1.2262799739837646
F16.989559173583984
F2.8005199432373047
tp1995
a(F-1.2262322902679443
F16.98889923095703
F3.209207534790039
tp1996
a(F-0.11280768364667892
F0.864893913269043
F-0.3406805396080017
tp1997
a(F-0.11878874152898788
F0.9107505679130554
F-0.33432260155677795
tp1998
a(F-0.12886260449886322
F0.98798668384552
F-0.3366281986236572
tp1999
a(F-0.1417299509048462
F1.0866402387619019
F-0.3420412540435791
tp2000
a(F-0.15327110886573792
F1.175126075744629
F-0.3398371636867523
tp2001
a(F-0.16654081642627716
F1.2768646478652954
F-0.33703336119651794
tp2002
a(F-0.18532420694828033
F1.4208765029907227
F-0.33961978554725647
tp2003
a(F-0.20304951071739197
F1.5567759275436401
F-0.33371424674987793
tp2004
a(F-0.23275873064994812
F1.7845557928085327
F-0.3389698266983032
tp2005
a(F-0.26468440890312195
F2.029329299926758
F-0.3363479971885681
tp2006
a(F-0.3096752464771271
F2.3742730617523193
F-0.3364938497543335
tp2007
a(F-0.3739854097366333
F2.867337465286255
F-0.33795365691185
tp2008
a(F-0.4674931466579437
F3.584259271621704
F-0.33738967776298523
tp2009
a(F-0.6251144409179688
F4.792738437652588
F-0.33789554238319397
tp2010
a(F-0.9386979341506958
F7.1969757080078125
F-0.337890625
tp2011
a(F-1.8803538084030151
F14.416629791259766
F-0.33803218603134155
tp2012
a(F-2.0169484615325928
F15.463898658752441
F0.00044520862866193056
tp2013
a(F-2.0179851055145264
F15.471846580505371
F0.3636656105518341
tp2014
a(F-2.0174269676208496
F15.46756649017334
F0.7270789742469788
tp2015
a(F-2.0180580615997314
F15.472404479980469
F1.0917240381240845
tp2016
a(F-2.017744541168213
F15.470002174377441
F1.4571043252944946
tp2017
a(F-2.0191397666931152
F15.480698585510254
F1.825508713722229
tp2018
a(F-2.017406940460205
F15.467412948608398
F2.1930272579193115
tp2019
a(F-2.0169365406036377
F15.463805198669434
F2.5639383792877197
tp2020
a(F-2.0173263549804688
F15.466794967651367
F2.9387829303741455
tp2021
a(F-0.15810416638851166
F0.8340407013893127
F-0.33156973123550415
tp2022
a(F-0.17561760544776917
F0.9264286160469055
F-0.34322696924209595
tp2023
a(F-0.18667681515216827
F0.9847688674926758
F-0.33863890171051025
tp2024
a(F-0.20368263125419617
F1.0744789838790894
F-0.3413451611995697
tp2025
a(F-0.2191871851682663
F1.1562695503234863
F-0.33748045563697815
tp2026
a(F-0.2418326884508133
F1.2757304906845093
F-0.3398522138595581
tp2027
a(F-0.2632589638233185
F1.388759732246399
F-0.33501705527305603
tp2028
a(F-0.29717838764190674
F1.5676934719085693
F-0.33916646242141724
tp2029
a(F-0.33275580406188965
F1.7553735971450806
F-0.3365143835544586
tp2030
a(F-0.382159560918808
F2.0159912109375
F-0.33723145723342896
tp2031
a(F-0.4478510618209839
F2.3625309467315674
F-0.3379303216934204
tp2032
a(F-0.5391294956207275
F2.844048500061035
F-0.3383128345012665
tp2033
a(F-0.6764011383056641
F3.56819224357605
F-0.3389875888824463
tp2034
a(F-0.9039477109909058
F4.768559455871582
F-0.339304119348526
tp2035
a(F-1.3523503541946411
F7.134000301361084
F-0.33803555369377136
tp2036
a(F-2.6895833015441895
F14.188253402709961
F-0.3357580006122589
tp2037
a(F-2.691042423248291
F14.19594955444336
F0.00041248882189393044
tp2038
a(F-2.689687967300415
F14.188804626464844
F0.3365960717201233
tp2039
a(F-2.691972494125366
F14.20085620880127
F0.6737166047096252
tp2040
a(F-2.689365863800049
F14.187106132507324
F1.0103038549423218
tp2041
a(F-2.6915624141693115
F14.19869327545166
F1.349745273590088
tp2042
a(F-2.6901051998138428
F14.19100570678711
F1.6889222860336304
tp2043
a(F-2.6921796798706055
F14.201949119567871
F2.0322515964508057
tp2044
a(F-2.690687894821167
F14.194079399108887
F2.3752076625823975
tp2045
a(F-2.689159393310547
F14.186017036437988
F2.7203879356384277
tp2046
a(F-0.21281366050243378
F0.851231575012207
F-0.3427159786224365
tp2047
a(F-0.2232503890991211
F0.8929772973060608
F-0.33504942059516907
tp2048
a(F-0.24246518313884735
F0.9698344469070435
F-0.33775293827056885
tp2049
a(F-0.263906866312027
F1.0555988550186157
F-0.3396203815937042
tp2050
a(F-0.2870039641857147
F1.1479847431182861
F-0.33933186531066895
tp2051
a(F-0.31031090021133423
F1.2412099838256836
F-0.3348693549633026
tp2052
a(F-0.3483813405036926
F1.3934874534606934
F-0.3404410183429718
tp2053
a(F-0.3880220353603363
F1.5520459413528442
F-0.3400598466396332
tp2054
a(F-0.4345479905605316
F1.7381447553634644
F-0.33745744824409485
tp2055
a(F-0.49903392791748047
F1.9960815906524658
F-0.33815571665763855
tp2056
a(F-0.580841600894928
F2.323303461074829
F-0.3365538418292999
tp2057
a(F-0.7023050785064697
F2.8091442584991455
F-0.3384188115596771
tp2058
a(F-0.8766162395477295
F3.5063695907592773
F-0.3373589515686035
tp2059
a(F-1.1748069524765015
F4.699100017547607
F-0.3386223316192627
tp2060
a(F-1.7621335983276367
F7.048343181610107
F-0.33823245763778687
tp2061
a(F-3.271233320236206
F13.084578514099121
F-0.31358566880226135
tp2062
a(F-3.2684590816497803
F13.073481559753418
F0.0003847140178550035
tp2063
a(F-3.2748899459838867
F13.099204063415527
F0.31470754742622375
tp2064
a(F-3.269777536392212
F13.078755378723145
F0.6283884048461914
tp2065
a(F-3.2731733322143555
F13.092338562011719
F0.9442226886749268
tp2066
a(F-3.273852586746216
F13.095054626464844
F1.2606942653656006
tp2067
a(F-3.271315336227417
F13.084906578063965
F1.577125072479248
tp2068
a(F-3.272312641143799
F13.088894844055176
F1.8968435525894165
tp2069
a(F-3.270601511001587
F13.082051277160645
F2.217017889022827
tp2070
a(F-3.2714316844940186
F13.085371971130371
F2.54129695892334
tp2071
a(F-0.2591479420661926
F0.8300196528434753
F-0.3396317660808563
tp2072
a(F-0.2803289294242859
F0.8978597521781921
F-0.34238147735595703
tp2073
a(F-0.297105610370636
F0.9515933990478516
F-0.33681100606918335
tp2074
a(F-0.32119545340538025
F1.0287503004074097
F-0.33638617396354675
tp2075
a(F-0.3523045778274536
F1.1283891201019287
F-0.3389851748943329
tp2076
a(F-0.3867321312427521
F1.2386564016342163
F-0.3396364450454712
tp2077
a(F-0.426289439201355
F1.3653537034988403
F-0.3390136957168579
tp2078
a(F-0.47675251960754395
F1.5269808769226074
F-0.34003034234046936
tp2079
a(F-0.5360676646232605
F1.716960072517395
F-0.3387868404388428
tp2080
a(F-0.6103335618972778
F1.9548248052597046
F-0.3365732431411743
tp2081
a(F-0.7165989875793457
F2.295180082321167
F-0.33790814876556396
tp2082
a(F-0.8598257899284363
F2.753918409347534
F-0.33718234300613403
tp2083
a(F-1.0786123275756836
F3.454664945602417
F-0.3378109931945801
tp2084
a(F-1.4440526962280273
F4.625126838684082
F-0.3387332558631897
tp2085
a(F-2.1649389266967773
F6.934038162231445
F-0.33817988634109497
tp2086
a(F-3.7830638885498047
F12.116697311401367
F-0.2951304316520691
tp2087
a(F-3.7854368686676025
F12.124298095703125
F0.00036260735942050815
tp2088
a(F-3.782562017440796
F12.115089416503906
F0.2958163321018219
tp2089
a(F-3.780289888381958
F12.107812881469727
F0.5912358164787292
tp2090
a(F-3.7841241359710693
F12.12009334564209
F0.8883752226829529
tp2091
a(F-3.7810864448547363
F12.110363960266113
F1.184930682182312
tp2092
a(F-3.782475709915161
F12.114812850952148
F1.4840396642684937
tp2093
a(F-3.7800209522247314
F12.106950759887695
F1.7831858396530151
tp2094
a(F-3.7807600498199463
F12.109318733215332
F2.0856735706329346
tp2095
a(F-3.7849292755126953
F12.122672080993652
F2.392770290374756
tp2096
a(F-0.30112224817276
F0.7993385791778564
F-0.3336329162120819
tp2097
a(F-0.3253742456436157
F0.8637162446975708
F-0.3359626829624176
tp2098
a(F-0.3541545867919922
F0.9401145577430725
F-0.3394171893596649
tp2099
a(F-0.3803447186946869
F1.0096371173858643
F-0.33675310015678406
tp2100
a(F-0.4130876660346985
F1.0965542793273926
F-0.33602389693260193
tp2101
a(F-0.45580342411994934
F1.2099446058273315
F-0.3384130895137787
tp2102
a(F-0.5002205967903137
F1.327851414680481
F-0.3363099694252014
tp2103
a(F-0.5597645044326782
F1.4859126806259155
F-0.3375169038772583
tp2104
a(F-0.632626473903656
F1.6793270111083984
F-0.33800241351127625
tp2105
a(F-0.7197793126106262
F1.9106769561767578
F-0.3355654180049896
tp2106
a(F-0.8522651195526123
F2.262364625930786
F-0.33975255489349365
tp2107
a(F-1.0206298828125
F2.709294319152832
F-0.3383671045303345
tp2108
a(F-1.275227665901184
F3.385132074356079
F-0.3376460373401642
tp2109
a(F-1.7042081356048584
F4.523874282836914
F-0.3379581570625305
tp2110
a(F-2.5620665550231934
F6.801086902618408
F-0.33834367990493774
tp2111
a(F-4.240866184234619
F11.257513999938965
F-0.2796986699104309
tp2112
a(F-4.239108562469482
F11.252848625183105
F0.00034328963374719024
tp2113
a(F-4.2345051765441895
F11.240629196166992
F0.2799653708934784
tp2114
a(F-4.239112377166748
F11.252857208251953
F0.5605005025863647
tp2115
a(F-4.237827777862549
F11.2494478225708
F0.8410850167274475
tp2116
a(F-4.238931179046631
F11.252376556396484
F1.1230475902557373
tp2117
a(F-4.237446308135986
F11.248435020446777
F1.4055266380310059
tp2118
a(F-4.239950656890869
F11.255083084106445
F1.6909420490264893
tp2119
a(F-4.239077568054199
F11.252765655517578
F1.9769883155822754
tp2120
a(F-4.241373538970947
F11.25886058807373
F2.266810894012451
tp2121
a(F-0.3488788306713104
F0.7856286764144897
F-0.33575522899627686
tp2122
a(F-0.3749670088291168
F0.844375729560852
F-0.33629703521728516
tp2123
a(F-0.4036765992641449
F0.9090259671211243
F-0.33604440093040466
tp2124
a(F-0.4347630739212036
F0.979028582572937
F-0.3343559503555298
tp2125
a(F-0.4807208478450775
F1.0825194120407104
F-0.3396589457988739
tp2126
a(F-0.5226565599441528
F1.1769529581069946
F-0.33706068992614746
tp2127
a(F-0.5893737077713013
F1.3271911144256592
F-0.34418433904647827
tp2128
a(F-0.6424857378005981
F1.4467922449111938
F-0.3364928066730499
tp2129
a(F-0.7263039350509644
F1.6355397701263428
F-0.3370644748210907
tp2130
a(F-0.832651674747467
F1.8750207424163818
F-0.3371811807155609
tp2131
a(F-0.9748824238777161
F2.195305347442627
F-0.33756887912750244
tp2132
a(F-1.1756105422973633
F2.6473183631896973
F-0.33853650093078613
tp2133
a(F-1.4716894626617432
F3.3140487670898438
F-0.33846381306648254
tp2134
a(F-1.9644595384597778
F4.423701286315918
F-0.3383806645870209
tp2135
a(F-2.949629068374634
F6.642171859741211
F-0.3383429944515228
tp2136
a(F-4.645429611206055
F10.460888862609863
F-0.26612389087677
tp2137
a(F-4.643396377563477
F10.456310272216797
F0.00032662093872204423
tp2138
a(F-4.648512840270996
F10.467832565307617
F0.26695483922958374
tp2139
a(F-4.650386810302734
F10.472051620483398
F0.5340874195098877
tp2140
a(F-4.644433498382568
F10.458645820617676
F0.8006662130355835
tp2141
a(F-4.647913455963135
F10.466482162475586
F1.0696015357971191
tp2142
a(F-4.648835182189941
F10.468557357788086
F1.3393718004226685
tp2143
a(F-4.645610809326172
F10.461296081542969
F1.6092846393585205
tp2144
a(F-4.650973796844482
F10.473373413085938
F1.884077548980713
tp2145
a(F-4.653961658477783
F10.480101585388184
F2.1604971885681152
tp2146
a(F-0.39961305260658264
F0.775976300239563
F-0.3409184217453003
tp2147
a(F-0.42877617478370667
F0.8326058387756348
F-0.3408970534801483
tp2148
a(F-0.45588284730911255
F0.8852420449256897
F-0.3364177942276001
tp2149
a(F-0.49531790614128113
F0.9618178009986877
F-0.3376781940460205
tp2150
a(F-0.542900562286377
F1.0542147159576416
F-0.3400423228740692
tp2151
a(F-0.5989188551902771
F1.1629921197891235
F-0.3423909842967987
tp2152
a(F-0.6516039371490479
F1.2652970552444458
F-0.33732354640960693
tp2153
a(F-0.7287667393684387
F1.4151332378387451
F-0.3383478820323944
tp2154
a(F-0.8239725828170776
F1.600005865097046
F-0.33897680044174194
tp2155
a(F-0.9446420073509216
F1.8343238830566406
F-0.3391015827655792
tp2156
a(F-1.1029332876205444
F2.1416969299316406
F-0.3385493755340576
tp2157
a(F-1.3266398906707764
F2.57609486579895
F-0.33865514397621155
tp2158
a(F-1.6525328159332275
F3.2089197635650635
F-0.3369060456752777
tp2159
a(F-2.2111024856567383
F4.2935614585876465
F-0.3376244902610779
tp2160
a(F-3.323857545852661
F6.454329967498779
F-0.3379829525947571
tp2161
a(F-5.023058891296387
F9.753872871398926
F-0.25508734583854675
tp2162
a(F-5.0220255851745605
F9.75186538696289
F0.0003131481062155217
tp2163
a(F-5.027510643005371
F9.762516021728516
F0.255940705537796
tp2164
a(F-5.02414608001709
F9.755983352661133
F0.5115029215812683
tp2165
a(F-5.024040699005127
F9.755778312683105
F0.7677758932113647
tp2166
a(F-5.014925479888916
F9.738078117370605
F1.0230363607406616
tp2167
a(F-5.020484924316406
F9.74887466430664
F1.2822282314300537
tp2168
a(F-5.022110462188721
F9.752030372619629
F1.5421936511993408
tp2169
a(F-5.027109146118164
F9.761736869812012
F1.8052436113357544
tp2170
a(F-5.023801803588867
F9.755314826965332
F2.0674071311950684
tp2171
a(F-0.43819180130958557
F0.7424091696739197
F-0.33672043681144714
tp2172
a(F-0.47338443994522095
F0.8020345568656921
F-0.3390010595321655
tp2173
a(F-0.5118419528007507
F0.8671914339065552
F-0.34021705389022827
tp2174
a(F-0.5548018217086792
F0.9399765133857727
F-0.3406836986541748
tp2175
a(F-0.6006137728691101
F1.0175936222076416
F-0.3388460874557495
tp2176
a(F-0.6533567309379578
F1.106953740119934
F-0.33643344044685364
tp2177
a(F-0.7282502055168152
F1.2338424921035767
F-0.3395768105983734
tp2178
a(F-0.8091457486152649
F1.370900273323059
F-0.3383733332157135
tp2179
a(F-0.9119467735290527
F1.5450714826583862
F-0.33792564272880554
tp2180
a(F-1.0450059175491333
F1.7705078125
F-0.3378903567790985
tp2181
a(F-1.2264518737792969
F2.0779237747192383
F-0.3390921652317047
tp2182
a(F-1.4825912714004517
F2.5118894577026367
F-0.3408949375152588
tp2183
a(F-1.8479501008987427
F3.1309010982513428
F-0.3393465280532837
tp2184
a(F-2.4622864723205566
F4.171744346618652
F-0.3386554718017578
tp2185
a(F-3.692025661468506
F6.255237579345703
F-0.3381516933441162
tp2186
a(F-5.372709274291992
F9.10274600982666
F-0.24575842916965485
tp2187
a(F-5.3629045486450195
F9.086134910583496
F0.0003012072411365807
tp2188
a(F-5.36655330657959
F9.092316627502441
F0.24607998132705688
tp2189
a(F-5.3665452003479
F9.092303276062012
F0.49212467670440674
tp2190
a(F-5.365457057952881
F9.090459823608398
F0.7385544776916504
tp2191
a(F-5.371696949005127
F9.101031303405762
F0.9870349764823914
tp2192
a(F-5.368885040283203
F9.096266746520996
F1.23508882522583
tp2193
a(F-5.36726713180542
F9.093525886535645
F1.4845688343048096
tp2194
a(F-5.376230239868164
F9.108711242675781
F1.7389609813690186
tp2195
a(F-5.37924861907959
F9.113825798034668
F1.9939285516738892
tp2196
a(F-0.484569251537323
F0.7223916053771973
F-0.3397590219974518
tp2197
a(F-0.517125129699707
F0.7709256410598755
F-0.3379034399986267
tp2198
a(F-0.5586712956428528
F0.8328622579574585
F-0.3388335704803467
tp2199
a(F-0.5980459451675415
F0.8915616273880005
F-0.33508723974227905
tp2200
a(F-0.664596438407898
F0.9907745718955994
F-0.3421173393726349
tp2201
a(F-0.7191758751869202
F1.0721410512924194
F-0.3379043638706207
tp2202
a(F-0.8030843734741211
F1.1972310543060303
F-0.34168699383735657
tp2203
a(F-0.8866567611694336
F1.3218201398849487
F-0.338325560092926
tp2204
a(F-1.004266619682312
F1.4971518516540527
F-0.3395553529262543
tp2205
a(F-1.1456772089004517
F1.7079654932022095
F-0.3380097448825836
tp2206
a(F-1.3378655910491943
F1.9944782257080078
F-0.3375122845172882
tp2207
a(F-1.6102854013442993
F2.400599241256714
F-0.33784058690071106
tp2208
a(F-2.0189013481140137
F3.0097603797912598
F-0.33828145265579224
tp2209
a(F-2.698570728302002
F4.023005485534668
F-0.33865946531295776
tp2210
a(F-4.0527143478393555
F6.041750907897949
F-0.33869028091430664
tp2211
a(F-5.689350605010986
F8.481633186340332
F-0.23745845258235931
tp2212
a(F-5.692865371704102
F8.486873626708984
F0.0002917468373198062
tp2213
a(F-5.687971115112305
F8.47957706451416
F0.23798419535160065
tp2214
a(F-5.703138828277588
F8.502188682556152
F0.4772040843963623
tp2215
a(F-5.693658828735352
F8.488056182861328
F0.7151170969009399
tp2216
a(F-5.685263633728027
F8.475541114807129
F0.9531944990158081
tp2217
a(F-5.691002368927002
F8.484095573425293
F1.194573163986206
tp2218
a(F-5.694901466369629
F8.489909172058105
F1.437286138534546
tp2219
a(F-5.688991069793701
F8.481097221374512
F1.6790248155593872
tp2220
a(F-5.685635089874268
F8.476094245910645
F1.9229891300201416
tp2221
a(F-0.5196730494499207
F0.6857404112815857
F-0.3360666036605835
tp2222
a(F-0.5781633853912354
F0.762921929359436
F-0.34843963384628296
tp2223
a(F-0.6065139174461365
F0.800332248210907
F-0.33927419781684875
tp2224
a(F-0.6526918411254883
F0.8612667918205261
F-0.3372962474822998
tp2225
a(F-0.7104738354682922
F0.9375137090682983
F-0.3373223841190338
tp2226
a(F-0.7807106971740723
F1.0301955938339233
F-0.33832088112831116
tp2227
a(F-0.8635308146476746
F1.139481782913208
F-0.3388637900352478
tp2228
a(F-0.9563798308372498
F1.2620017528533936
F-0.3365810811519623
tp2229
a(F-1.0807092189788818
F1.426061987876892
F-0.33701592683792114
tp2230
a(F-1.2384265661239624
F1.6341795921325684
F-0.3369901478290558
tp2231
a(F-1.4499449729919434
F1.913291096687317
F-0.33737170696258545
tp2232
a(F-1.7380633354187012
F2.29348087310791
F-0.33632147312164307
tp2233
a(F-2.1881120204925537
F2.88734769821167
F-0.33815252780914307
tp2234
a(F-2.92039155960083
F3.853635549545288
F-0.3380263149738312
tp2235
a(F-4.378955841064453
F5.7783002853393555
F-0.3375260829925537
tp2236
a(F-5.991064548492432
F7.905576705932617
F-0.23062637448310852
tp2237
a(F-5.9899163246154785
F7.904061317443848
F0.0002831235760822892
tp2238
a(F-5.996682643890381
F7.912990093231201
F0.23140984773635864
tp2239
a(F-5.997951507568359
F7.914664268493652
F0.4628850817680359
tp2240
a(F-5.9909234046936035
F7.90539026260376
F0.6940000057220459
tp2241
a(F-5.9883713722229
F7.902022361755371
F0.9260185360908508
tp2242
a(F-5.999661445617676
F7.9169206619262695
F1.16153085231781
tp2243
a(F-5.994084358215332
F7.909561634063721
F1.3952752351760864
tp2244
a(F-5.996259689331055
F7.912431716918945
F1.6322335004806519
tp2245
a(F-5.997706890106201
F7.914341449737549
F1.870953917503357
tp2246
a(F-0.5672576427459717
F0.6651458144187927
F-0.3414483666419983
tp2247
a(F-0.6001555323600769
F0.70372074842453
F-0.33665910363197327
tp2248
a(F-0.6435807347297668
F0.7546395659446716
F-0.3350909352302551
tp2249
a(F-0.7104982137680054
F0.8331045508384705
F-0.34175580739974976
tp2250
a(F-0.7641965746879578
F0.896069347858429
F-0.3377160429954529
tp2251
a(F-0.8334954380989075
F0.9773266315460205
F-0.336195170879364
tp2252
a(F-0.9265190362930298
F1.0864027738571167
F-0.3384162485599518
tp2253
a(F-1.0264661312103271
F1.2035971879959106
F-0.3362431526184082
tp2254
a(F-1.1661182641983032
F1.3673481941223145
F-0.33848053216934204
tp2255
a(F-1.3361059427261353
F1.5666697025299072
F-0.3384054899215698
tp2256
a(F-1.567771315574646
F1.838312029838562
F-0.3395387828350067
tp2257
a(F-1.8688664436340332
F2.1913654804229736
F-0.3366020917892456
tp2258
a(F-2.351677656173706
F2.7574923038482666
F-0.33827537298202515
tp2259
a(F-3.1349174976348877
F3.6758909225463867
F-0.33774200081825256
tp2260
a(F-4.712691307067871
F5.5259318351745605
F-0.3381078839302063
tp2261
a(F-6.2774834632873535
F7.360750675201416
F-0.22492621839046478
tp2262
a(F-6.27462911605835
F7.357403755187988
F0.0002760532661341131
tp2263
a(F-6.295446872711182
F7.381814002990723
F0.226124107837677
tp2264
a(F-6.273959159851074
F7.3566179275512695
F0.4506729245185852
tp2265
a(F-6.281383991241455
F7.3653244972229
F0.6772837042808533
tp2266
a(F-6.275510311126709
F7.358436584472656
F0.9032532572746277
tp2267
a(F-6.275597095489502
F7.358538627624512
F1.130859375
tp2268
a(F-6.274523735046387
F7.3572797775268555
F1.359462857246399
tp2269
a(F-6.280592918395996
F7.364396572113037
F1.5913000106811523
tp2270
a(F-6.282583236694336
F7.366730213165283
F1.824171543121338
tp2271
a(F-0.5895007252693176
F0.6155561804771423
F-0.33290132880210876
tp2272
a(F-0.6457618474960327
F0.6743040680885315
F-0.3398485481739044
tp2273
a(F-0.6866148114204407
F0.7169626355171204
F-0.33539706468582153
tp2274
a(F-0.74870765209198
F0.7817999720573425
F-0.33787158131599426
tp2275
a(F-0.8119386434555054
F0.8478257060050964
F-0.33663272857666016
tp2276
a(F-0.8962744474411011
F0.9358891248703003
F-0.3391686975955963
tp2277
a(F-0.976310133934021
F1.0194623470306396
F-0.33455780148506165
tp2278
a(F-1.1055151224136353
F1.154378056526184
F-0.3397504389286041
tp2279
a(F-1.2387421131134033
F1.293493628501892
F-0.33733275532722473
tp2280
a(F-1.418492317199707
F1.4811886548995972
F-0.33706215023994446
tp2281
a(F-1.6705865859985352
F1.7444252967834473
F-0.339439332485199
tp2282
a(F-2.0045714378356934
F2.093172073364258
F-0.3387244641780853
tp2283
a(F-2.5077126026153564
F2.618551731109619
F-0.33842065930366516
tp2284
a(F-3.3525381088256836
F3.500717878341675
F-0.3388591408729553
tp2285
a(F-5.0331950187683105
F5.2556586265563965
F-0.3387790620326996
tp2286
a(F-6.549776077270508
F6.839271545410156
F-0.22017472982406616
tp2287
a(F-6.549312114715576
F6.838787078857422
F0.0002703254867810756
tp2288
a(F-6.5542755126953125
F6.843969345092773
F0.220867320895195
tp2289
a(F-6.542531490325928
F6.831707000732422
F0.4409122169017792
tp2290
a(F-6.543027400970459
F6.8322248458862305
F0.6618819236755371
tp2291
a(F-6.563748836517334
F6.853861331939697
F0.886337161064148
tp2292
a(F-6.556918144226074
F6.846729278564453
F1.1085106134414673
tp2293
a(F-6.558675289154053
F6.848564147949219
F1.333181381225586
tp2294
a(F-6.553618431091309
F6.843283653259277
F1.5578265190124512
tp2295
a(F-6.551628112792969
F6.84120512008667
F1.7846914529800415
tp2296
a(F-0.6263871788978577
F0.5828066468238831
F-0.3341829478740692
tp2297
a(F-0.6850339770317078
F0.6373730897903442
F-0.34059271216392517
tp2298
a(F-0.7268573045730591
F0.6762865781784058
F-0.335432767868042
tp2299
a(F-0.8021166920661926
F0.7463098168373108
F-0.3419693410396576
tp2300
a(F-0.8619094491004944
F0.8019425272941589
F-0.3376019597053528
tp2301
a(F-0.9478538036346436
F0.8819074034690857
F-0.33886468410491943
tp2302
a(F-1.0370100736618042
F0.9648606181144714
F-0.335719496011734
tp2303
a(F-1.166983962059021
F1.0857917070388794
F-0.33882108330726624
tp2304
a(F-1.309090256690979
F1.2180110216140747
F-0.3367886245250702
tp2305
a(F-1.4979443550109863
F1.3937256336212158
F-0.33627060055732727
tp2306
a(F-1.75373113155365
F1.631716251373291
F-0.33664053678512573
tp2307
a(F-2.111180067062378
F1.9642958641052246
F-0.3370237648487091
tp2308
a(F-2.650585174560547
F2.466171979904175
F-0.33793336153030396
tp2309
a(F-3.542996883392334
F3.296494722366333
F-0.3383190631866455
tp2310
a(F-5.31276273727417
F4.943130016326904
F-0.33783406019210815
tp2311
a(F-6.8094048500061035
F6.335643768310547
F-0.21625211834907532
tp2312
a(F-6.8195295333862305
F6.345064163208008
F0.0002659230085555464
tp2313
a(F-6.817994117736816
F6.343635559082031
F0.21705691516399384
tp2314
a(F-6.82015323638916
F6.345644474029541
F0.4342208206653595
tp2315
a(F-6.821914196014404
F6.347282886505127
F0.6519559025764465
tp2316
a(F-6.822137355804443
F6.347490310668945
F0.8703173995018005
tp2317
a(F-6.816633224487305
F6.342369556427002
F1.088729977607727
tp2318
a(F-6.812621593475342
F6.338636875152588
F1.3082705736160278
tp2319
a(F-6.82258415222168
F6.347906589508057
F1.5321351289749146
tp2320
a(F-6.816997528076172
F6.342708587646484
F1.7543541193008423
tp2321
a(F-0.6724846959114075
F0.5569833517074585
F-0.3410607576370239
tp2322
a(F-0.7251795530319214
F0.6006276607513428
F-0.34274938702583313
tp2323
a(F-0.7667322158813477
F0.6350435018539429
F-0.3363628089427948
tp2324
a(F-0.8316424489021301
F0.6888052225112915
F-0.3370499014854431
tp2325
a(F-0.9170794486999512
F0.7595681548118591
F-0.3414744436740875
tp2326
a(F-0.9953685998916626
F0.8244109153747559
F-0.3382803797721863
tp2327
a(F-1.098217487335205
F0.9095951914787292
F-0.33797910809516907
tp2328
a(F-1.22860586643219
F1.0175889730453491
F-0.33909866213798523
tp2329
a(F-1.382500410079956
F1.1450515985488892
F-0.33811232447624207
tp2330
a(F-1.587128758430481
F1.3145344257354736
F-0.33869853615760803
tp2331
a(F-1.8422476053237915
F1.5258357524871826
F-0.3361702859401703
tp2332
a(F-2.239203453063965
F1.854613184928894
F-0.33981046080589294
tp2333
a(F-2.801955223083496
F2.3207104206085205
F-0.3395927846431732
tp2334
a(F-3.724639654159546
F3.08492112159729
F-0.3381021022796631
tp2335
a(F-5.58260440826416
F4.623774528503418
F-0.33746427297592163
tp2336
a(F-7.065089225769043
F5.851637840270996
F-0.21329309046268463
tp2337
a(F-7.066786289215088
F5.853043556213379
F0.0002619578444864601
tp2338
a(F-7.069745063781738
F5.855494022369385
F0.21395806968212128
tp2339
a(F-7.0843682289123535
F5.867605686187744
F0.42877113819122314
tp2340
a(F-7.066330909729004
F5.85266637802124
F0.6419687271118164
tp2341
a(F-7.071718215942383
F5.857128143310547
F0.8576105237007141
tp2342
a(F-7.062012195587158
F5.8490891456604
F1.0722267627716064
tp2343
a(F-7.08188533782959
F5.865549087524414
F1.2928260564804077
tp2344
a(F-7.075617790222168
F5.860358238220215
F1.5104990005493164
tp2345
a(F-7.064472675323486
F5.8511271476745605
F1.7282708883285522
tp2346
a(F-0.6882547736167908
F0.5061357617378235
F-0.333690345287323
tp2347
a(F-0.7316385507583618
F0.5380398035049438
F-0.33057716488838196
tp2348
a(F-0.8085952401161194
F0.5946329832077026
F-0.3391099274158478
tp2349
a(F-0.8795117139816284
F0.646784245967865
F-0.3407565951347351
tp2350
a(F-0.9476109147071838
F0.6968637108802795
F-0.33730781078338623
tp2351
a(F-1.038306713104248
F0.7635605335235596
F-0.3373367190361023
tp2352
a(F-1.1406559944152832
F0.8388271927833557
F-0.33558404445648193
tp2353
a(F-1.2790294885635376
F0.9405856728553772
F-0.337473064661026
tp2354
a(F-1.4528968334197998
F1.0684460401535034
F-0.339684396982193
tp2355
a(F-1.6569640636444092
F1.2185150384902954
F-0.33803316950798035
tp2356
a(F-1.932008981704712
F1.4207803010940552
F-0.3370276689529419
tp2357
a(F-2.3320975303649902
F1.7150014638900757
F-0.3383256793022156
tp2358
a(F-2.937145709991455
F2.1599481105804443
F-0.3403046131134033
tp2359
a(F-3.8963754177093506
F2.865355968475342
F-0.33811891078948975
tp2360
a(F-5.856520175933838
F4.306827068328857
F-0.3384353220462799
tp2361
a(F-7.313446044921875
F5.378235816955566
F-0.21106989681720734
tp2362
a(F-7.321939468383789
F5.384482383728027
F0.00025946612004190683
tp2363
a(F-7.318843364715576
F5.382205009460449
F0.21174465119838715
tp2364
a(F-7.319615364074707
F5.382772922515869
F0.4235042631626129
tp2365
a(F-7.3177642822265625
F5.381411552429199
F0.6355407238006592
tp2366
a(F-7.324139595031738
F5.386099815368652
F0.8491156697273254
tp2367
a(F-7.322059154510498
F5.384570121765137
F1.0627632141113281
tp2368
a(F-7.313896656036377
F5.378567218780518
F1.2763950824737549
tp2369
a(F-7.327906131744385
F5.388869762420654
F1.4954814910888672
tp2370
a(F-7.321311950683594
F5.384020805358887
F1.7122455835342407
tp2371
a(F-0.9162317514419556
F0.5956366062164307
F-0.34109848737716675
tp2372
a(F-0.9941521883010864
F0.6462922096252441
F-0.3400329649448395
tp2373
a(F-1.0833073854446411
F0.7042514681816101
F-0.33819055557250977
tp2374
a(F-1.1896065473556519
F0.7733559012413025
F-0.33629605174064636
tp2375
a(F-1.334716558456421
F0.8676909804344177
F-0.3383914828300476
tp2376
a(F-1.508230209350586
F0.9804911613464355
F-0.33882877230644226
tp2377
a(F-1.7219483852386475
F1.119428038597107
F-0.3375500440597534
tp2378
a(F-2.0090765953063965
F1.3060883283615112
F-0.33676326274871826
tp2379
a(F-2.4298083782196045
F1.5796034336090088
F-0.3387131989002228
tp2380
a(F-3.0336105823516846
F1.9721314907073975
F-0.3377333879470825
tp2381
a(F-4.043009281158447
F2.628335475921631
F-0.33712059259414673
tp2382
a(F-6.093240261077881
F3.9611780643463135
F-0.33834221959114075
tp2383
a(F-7.573770046234131
F4.923661231994629
F-0.21003329753875732
tp2384
a(F-7.555522441864014
F4.911798477172852
F0.00025727099273353815
tp2385
a(F-7.5731425285339355
F4.923253536224365
F0.21053193509578705
tp2386
a(F-7.561430931091309
F4.915639400482178
F0.42038315534591675
tp2387
a(F-7.563586235046387
F4.917040824890137
F0.6311964988708496
tp2388
a(F-7.566396236419678
F4.918867588043213
F0.8428904414176941
tp2389
a(F-7.57069206237793
F4.921660423278809
F1.055870532989502
tp2390
a(F-7.5625224113464355
F4.916348934173584
F1.2681621313095093
tp2391
a(F-7.561080455780029
F4.915411949157715
F1.4827121496200562
tp2392
a(F-7.567588806152344
F4.919642925262451
F1.7006168365478516
tp2393
a(F-1.0254265069961548
F0.5854836106300354
F-0.3386102020740509
tp2394
a(F-1.1333168745040894
F0.6470853686332703
F-0.34157687425613403
tp2395
a(F-1.2421101331710815
F0.7092026472091675
F-0.3390048146247864
tp2396
a(F-1.3904352188110352
F0.793891191482544
F-0.34033647179603577
tp2397
a(F-1.5665918588638306
F0.8944706916809082
F-0.33977848291397095
tp2398
a(F-1.7869666814804077
F1.0202971696853638
F-0.33819085359573364
tp2399
a(F-2.1007001399993896
F1.1994283199310303
F-0.33995360136032104
tp2400
a(F-2.5020968914031982
F1.428612232208252
F-0.33673757314682007
tp2401
a(F-3.14546799659729
F1.7959553003311157
F-0.33808568120002747
tp2402
a(F-4.212892055511475
F2.4054181575775146
F-0.33914715051651
tp2403
a(F-6.3113908767700195
F3.6035895347595215
F-0.33834540843963623
tp2404
a(F-7.808670520782471
F4.458485126495361
F-0.20906460285186768
tp2405
a(F-7.8249077796936035
F4.467756271362305
F0.00025723667931742966
tp2406
a(F-7.809278964996338
F4.458832740783691
F0.20959462225437164
tp2407
a(F-7.807240009307861
F4.457668304443359
F0.4190503656864166
tp2408
a(F-7.794808864593506
F4.450570583343506
F0.6280144453048706
tp2409
a(F-7.80465030670166
F4.45619010925293
F0.8393881916999817
tp2410
a(F-7.802126407623291
F4.45474910736084
F1.0505468845367432
tp2411
a(F-7.8133416175842285
F4.46115255355835
F1.2649469375610352
tp2412
a(F-7.81041145324707
F4.459479331970215
F1.47868013381958
tp2413
a(F-7.809276103973389
F4.458830833435059
F1.6942874193191528
tp2414
a(F-1.2827017307281494
F0.6373568177223206
F-0.3394801914691925
tp2415
a(F-1.4256651401519775
F0.7083933353424072
F-0.3383905589580536
tp2416
a(F-1.6103334426879883
F0.8001524806022644
F-0.3386872112751007
tp2417
a(F-1.8482332229614258
F0.9183616042137146
F-0.33919164538383484
tp2418
a(F-2.1561641693115234
F1.0713682174682617
F-0.33836105465888977
tp2419
a(F-2.592811107635498
F1.2883321046829224
F-0.33837735652923584
tp2420
a(F-3.2588107585906982
F1.6192580461502075
F-0.3396593928337097
tp2421
a(F-4.330113887786865
F2.151573896408081
F-0.3380260467529297
tp2422
a(F-6.504782676696777
F3.2321367263793945
F-0.3381512463092804
tp2423
a(F-8.053136825561523
F4.001492977142334
F-0.20907951891422272
tp2424
a(F-8.05282211303711
F4.001336574554443
F0.0002567111805547029
tp2425
a(F-8.058097839355469
F4.003957748413086
F0.2097223401069641
tp2426
a(F-8.048866271972656
F3.999370574951172
F0.41893473267555237
tp2427
a(F-8.051878929138184
F4.0008673667907715
F0.6290777921676636
tp2428
a(F-8.051860809326172
F4.000858306884766
F0.8397473096847534
tp2429
a(F-8.065539360046387
F4.007655143737793
F1.0531224012374878
tp2430
a(F-8.04848861694336
F3.99918270111084
F1.2635509967803955
tp2431
a(F-8.045534133911133
F3.9977149963378906
F1.4770601987838745
tp2432
a(F-8.056744575500488
F4.0032854080200195
F1.6950358152389526
tp2433
a(F-1.3055129051208496
F0.5573709011077881
F-0.3364449441432953
tp2434
a(F-1.4624251127243042
F0.6243624687194824
F-0.3380013406276703
tp2435
a(F-1.6476138830184937
F0.7034263014793396
F-0.33742907643318176
tp2436
a(F-1.8935743570327759
F0.8084357976913452
F-0.3383879065513611
tp2437
a(F-2.2152857780456543
F0.9457860589027405
F-0.3385106921195984
tp2438
a(F-2.654033899307251
F1.133103609085083
F-0.3372725248336792
tp2439
a(F-3.3369712829589844
F1.424674391746521
F-0.3386733829975128
tp2440
a(F-4.451371669769287
F1.9004524946212769
F-0.33836761116981506
tp2441
a(F-6.689295291900635
F2.855903387069702
F-0.33861225843429565
tp2442
a(F-8.297483444213867
F3.542497396469116
F-0.20976684987545013
tp2443
a(F-8.307615280151367
F3.546823024749756
F0.00025787969934754074
tp2444
a(F-8.293296813964844
F3.540709972381592
F0.21017616987228394
tp2445
a(F-8.30212688446045
F3.544480085372925
F0.4207703471183777
tp2446
a(F-8.299297332763672
F3.543272018432617
F0.6313825249671936
tp2447
a(F-8.29846477508545
F3.5429162979125977
F0.8427411913871765
tp2448
a(F-8.292290687561035
F3.54028058052063
F1.0542995929718018
tp2449
a(F-8.28933048248291
F3.5390167236328125
F1.2671908140182495
tp2450
a(F-8.30194091796875
F3.544400453567505
F1.4841132164001465
tp2451
a(F-8.288382530212402
F3.538611888885498
F1.6979823112487793
tp2452
a(F-1.331977128982544
F0.4799785315990448
F-0.3355685770511627
tp2453
a(F-1.4936169385910034
F0.538225531578064
F-0.3374704122543335
tp2454
a(F-1.6916675567626953
F0.6095931529998779
F-0.33868327736854553
tp2455
a(F-1.9331777095794678
F0.6966214179992676
F-0.3377193212509155
tp2456
a(F-2.270446300506592
F0.8181563019752502
F-0.3391607403755188
tp2457
a(F-2.7273318767547607
F0.982795238494873
F-0.33881622552871704
tp2458
a(F-3.414703845977783
F1.2304900884628296
F-0.3387921154499054
tp2459
a(F-4.5622148513793945
F1.643996000289917
F-0.3390176594257355
tp2460
a(F-6.836413383483887
F2.4635045528411865
F-0.3383002281188965
tp2461
a(F-8.524709701538086
F3.071882963180542
F-0.21067926287651062
tp2462
a(F-8.521151542663574
F3.070600748062134
F0.0002585774927865714
tp2463
a(F-8.541512489318848
F3.0779378414154053
F0.21161319315433502
tp2464
a(F-8.535908699035645
F3.075918436050415
F0.42291900515556335
tp2465
a(F-8.526671409606934
F3.072589635848999
F0.6341360211372375
tp2466
a(F-8.541359901428223
F3.077882766723633
F0.847959578037262
tp2467
a(F-8.536398887634277
F3.0760951042175293
F1.0610013008117676
tp2468
a(F-8.526863098144531
F3.0726587772369385
F1.2742760181427002
tp2469
a(F-8.530343055725098
F3.0739128589630127
F1.4907525777816772
tp2470
a(F-8.526327133178711
F3.072465658187866
F1.7075642347335815
tp2471
a(F-1.2412991523742676
F0.36801713705062866
F-0.3388720452785492
tp2472
a(F-1.363933801651001
F0.40437552332878113
F-0.3371795117855072
tp2473
a(F-1.5255630016326904
F0.4522949457168579
F-0.33822837471961975
tp2474
a(F-1.7271630764007568
F0.5120648145675659
F-0.33930909633636475
tp2475
a(F-1.970035195350647
F0.5840708613395691
F-0.33770811557769775
tp2476
a(F-2.313697338104248
F0.685958981513977
F-0.33914411067962646
tp2477
a(F-2.770784854888916
F0.8214750289916992
F-0.3377632200717926
tp2478
a(F-3.4857773780822754
F1.033454179763794
F-0.3393620550632477
tp2479
a(F-4.639843463897705
F1.3756086826324463
F-0.3383243978023529
tp2480
a(F-6.968438625335693
F2.0659844875335693
F-0.33837077021598816
tp2481
a(F-8.77398681640625
F2.6012887954711914
F-0.21277594566345215
tp2482
a(F-8.784358978271484
F2.6043639183044434
F0.0002615687844809145
tp2483
a(F-8.778451919555664
F2.6026124954223633
F0.21340729296207428
tp2484
a(F-8.781039237976074
F2.603379487991333
F0.426910400390625
tp2485
a(F-8.79798412322998
F2.608403444290161
F0.6420509219169617
tp2486
a(F-8.798974990844727
F2.608696937561035
F0.8571633696556091
tp2487
a(F-8.777562141418457
F2.602348566055298
F1.0705291032791138
tp2488
a(F-8.782200813293457
F2.6037240028381348
F1.287837266921997
tp2489
a(F-8.793328285217285
F2.607023000717163
F1.507911205291748
tp2490
a(F-8.785704612731934
F2.6047627925872803
F1.7265336513519287
tp2491
a(F-1.254213571548462
F0.294430673122406
F-0.3371981680393219
tp2492
a(F-1.3904094696044922
F0.32640308141708374
F-0.33850494027137756
tp2493
a(F-1.548732042312622
F0.36356982588768005
F-0.3381509482860565
tp2494
a(F-1.7466304302215576
F0.41002708673477173
F-0.3379228711128235
tp2495
a(F-2.0175256729125977
F0.4736206531524658
F-0.3405971825122833
tp2496
a(F-2.3418078422546387
F0.5497469305992126
F-0.3380519151687622
tp2497
a(F-2.820374011993408
F0.6620917916297913
F-0.33858731389045715
tp2498
a(F-3.5210518836975098
F0.8265781998634338
F-0.33759069442749023
tp2499
a(F-4.71122407913208
F1.1059749126434326
F-0.33831262588500977
tp2500
a(F-7.088376045227051
F1.664018988609314
F-0.33896785974502563
tp2501
a(F-9.034011840820312
F2.120763063430786
F-0.21575486660003662
tp2502
a(F-9.039361000061035
F2.122019052505493
F0.0002650745154824108
tp2503
a(F-9.032007217407227
F2.1202926635742188
F0.21623700857162476
tp2504
a(F-9.042346000671387
F2.1227197647094727
F0.43293866515159607
tp2505
a(F-9.02877140045166
F2.119533061981201
F0.6488874554634094
tp2506
a(F-9.048595428466797
F2.1241867542266846
F0.868094801902771
tp2507
a(F-9.038836479187012
F2.1218960285186768
F1.0856542587280273
tp2508
a(F-9.039772987365723
F2.1221156120300293
F1.3054779767990112
tp2509
a(F-9.027983665466309
F2.1193480491638184
F1.5246411561965942
tp2510
a(F-9.027823448181152
F2.1193103790283203
F1.7471730709075928
tp2511
a(F-1.2616816759109497
F0.22038933634757996
F-0.33522894978523254
tp2512
a(F-1.4029203653335571
F0.2450607568025589
F-0.33754628896713257
tp2513
a(F-1.5612963438034058
F0.2727257311344147
F-0.3368974030017853
tp2514
a(F-1.7553596496582031
F0.30662450194358826
F-0.3356299102306366
tp2515
a(F-2.0276715755462646
F0.35419169068336487
F-0.3382965624332428
tp2516
a(F-2.378518581390381
F0.41547730565071106
F-0.3393256664276123
tp2517
a(F-2.8429369926452637
F0.4966014623641968
F-0.33729448914527893
tp2518
a(F-3.5668976306915283
F0.6230621933937073
F-0.3379766643047333
tp2519
a(F-4.765577793121338
F0.8324465155601501
F-0.33820343017578125
tp2520
a(F-7.150328636169434
F1.2490123510360718
F-0.33792147040367126
tp2521
a(F-9.29714584350586
F1.624016284942627
F-0.21943587064743042
tp2522
a(F-9.300214767456055
F1.6245523691177368
F0.0002695263538043946
tp2523
a(F-9.301836967468262
F1.624835729598999
F0.2200860232114792
tp2524
a(F-9.294507026672363
F1.6235554218292236
F0.4397943317890167
tp2525
a(F-9.306687355041504
F1.6256831884384155
F0.6610189080238342
tp2526
a(F-9.295324325561523
F1.6236982345581055
F0.8813096880912781
tp2527
a(F-9.29686164855957
F1.6239666938781738
F1.1035534143447876
tp2528
a(F-9.295583724975586
F1.6237435340881348
F1.3266817331314087
tp2529
a(F-9.294715881347656
F1.6235920190811157
F1.5512830018997192
tp2530
a(F-9.301687240600586
F1.624809741973877
F1.7790683507919312
tp2531
a(F-1.275813102722168
F0.14774413406848907
F-0.3361590504646301
tp2532
a(F-1.4206457138061523
F0.16451631486415863
F-0.3389628827571869
tp2533
a(F-1.5806065797805786
F0.18304039537906647
F-0.3382222056388855
tp2534
a(F-1.7920401096343994
F0.20752523839473724
F-0.3397882282733917
tp2535
a(F-2.0581252574920654
F0.23833893239498138
F-0.34051620960235596
tp2536
a(F-2.398667573928833
F0.2777750492095947
F-0.3393487334251404
tp2537
a(F-2.8812315464019775
F0.3336578607559204
F-0.3389894664287567
tp2538
a(F-3.5971548557281494
F0.41656455397605896
F-0.3380035161972046
tp2539
a(F-4.787291049957275
F0.5543869733810425
F-0.33691340684890747
tp2540
a(F-7.214848041534424
F0.8355075120925903
F-0.338129460811615
tp2541
a(F-9.563907623291016
F1.1075377464294434
F-0.22385115921497345
tp2542
a(F-9.57526969909668
F1.1088535785675049
F0.00027518533170223236
tp2543
a(F-9.567038536071777
F1.1079003810882568
F0.22447465360164642
tp2544
a(F-9.56154727935791
F1.1072643995285034
F0.44866010546684265
tp2545
a(F-9.56353759765625
F1.1074949502944946
F0.6736019253730774
tp2546
a(F-9.575149536132812
F1.1088396310806274
F0.900275707244873
tp2547
a(F-9.564542770385742
F1.1076114177703857
F1.125867486000061
tp2548
a(F-9.568700790405273
F1.1080929040908813
F1.3542817831039429
tp2549
a(F-9.56057071685791
F1.1071513891220093
F1.5823580026626587
tp2550
a(F-9.562521934509277
F1.107377290725708
F1.8137162923812866
tp2551
a(F-1.2971373796463013
F0.07485837489366531
F-0.3400736451148987
tp2552
a(F-1.4290063381195068
F0.08246859908103943
F-0.33925777673721313
tp2553
a(F-1.5757523775100708
F0.09093737602233887
F-0.33550238609313965
tp2554
a(F-1.7926970720291138
F0.10345735400915146
F-0.3382180631160736
tp2555
a(F-2.0530567169189453
F0.11848282814025879
F-0.3379840850830078
tp2556
a(F-2.3969738483428955
F0.13833044469356537
F-0.33741840720176697
tp2557
a(F-2.884889602661133
F0.16648827493190765
F-0.3377275764942169
tp2558
a(F-3.613349199295044
F0.20852799713611603
F-0.33783242106437683
tp2559
a(F-4.831269264221191
F0.2788147032260895
F-0.3383132517337799
tp2560
a(F-7.236274242401123
F0.4176086187362671
F-0.3374427556991577
tp2561
a(F-9.848686218261719
F0.5683720707893372
F-0.22936734557151794
tp2562
a(F-9.846114158630371
F0.5682236552238464
F0.0002815583720803261
tp2563
a(F-9.861977577209473
F0.5691391229629517
F0.23024122416973114
tp2564
a(F-9.838879585266113
F0.5678061246871948
F0.4593716859817505
tp2565
a(F-9.85781478881836
F0.5688989162445068
F0.6908673644065857
tp2566
a(F-9.85646915435791
F0.5688212513923645
F0.922105610370636
tp2567
a(F-9.85025405883789
F0.5684625506401062
F1.1537182331085205
tp2568
a(F-9.8606538772583
F0.5690627694129944
F1.3886445760726929
tp2569
a(F-9.855249404907227
F0.5687508583068848
F1.6229974031448364
tp2570
a(F-9.860200881958008
F0.569036602973938
F1.8608524799346924
tp2571
a(F-1.3031370639801025
F3.457991169852903e-06
F-0.34107908606529236
tp2572
a(F-1.419628381729126
F3.767111365959863e-06
F-0.3364715278148651
tp2573
a(F-1.5921046733856201
F4.224792519380571e-06
F-0.33842092752456665
tp2574
a(F-1.7965461015701294
F4.767296559293754e-06
F-0.33838123083114624
tp2575
a(F-2.065061569213867
F5.4798260862298775e-06
F-0.3393956422805786
tp2576
a(F-2.4157824516296387
F6.410495643649483e-06
F-0.33950117230415344
tp2577
a(F-2.9036450386047363
F7.705082680331543e-06
F-0.3393585979938507
tp2578
a(F-3.6234140396118164
F9.615054295863956e-06
F-0.33821070194244385
tp2579
a(F-4.840209484100342
F1.2843931472161785e-05
F-0.3383762836456299
tp2580
a(F-7.259772300720215
F1.926445656863507e-05
F-0.3379761874675751
tp2581
a(F-10.158354759216309
F2.6956106012221426e-05
F-0.23618628084659576
tp2582
a(F-10.141308784484863
F2.691087320272345e-05
F0.00028951800777576864
tp2583
a(F-10.144521713256836
F2.691939880605787e-05
F0.23644419014453888
tp2584
a(F-10.145535469055176
F2.6922089091385715e-05
F0.47290241718292236
tp2585
a(F-10.158973693847656
F2.6957748559652828e-05
F0.7107908725738525
tp2586
a(F-10.153597831726074
F2.694348404475022e-05
F0.9483250975608826
tp2587
a(F-10.15455436706543
F2.6946021534968168e-05
F1.187384009361267
tp2588
a(F-10.1666259765625
F2.697805393836461e-05
F1.4293553829193115
tp2589
a(F-10.174798011779785
F2.6999741749023087e-05
F1.6728384494781494
tp2590
a(F-10.145744323730469
F2.6922643883153796e-05
F1.9115607738494873
tp2591
a.