(lp0
(F-1.276151180267334
F-3.3863816497614607e-06
F-0.3340159058570862
tp1
a(F-1.409441351890564
F-3.7400791370600928e-06
F-0.3340570628643036
tp2
a(F-1.5886834859848022
F-4.215714398014825e-06
F-0.3376937210559845
tp3
a(F-1.8032286167144775
F-4.785028977494221e-06
F-0.3396398723125458
tp4
a(F-2.0454132556915283
F-5.427687938208692e-06
F-0.3361664414405823
tp5
a(F-2.3948864936828613
F-6.355046480166493e-06
F-0.3365645706653595
tp6
a(F-2.8795175552368164
F-7.641058800800238e-06
F-0.33653873205184937
tp7
a(F-3.613919496536255
F-9.589859473635443e-06
F-0.33732447028160095
tp8
a(F-4.860045433044434
F-1.289656665903749e-05
F-0.33976298570632935
tp9
a(F-7.253554821014404
F-1.9247958334744908e-05
F-0.3376867473125458
tp10
a(F-14.542987823486328
F-3.859112621285021e-05
F-0.3381309509277344
tp11
a(F-48.86692428588867
F-0.0001296727714361623
F0.0013950718566775322
tp12
a(F-48.884185791015625
F-0.00012971856631338596
F1.1393717527389526
tp13
a(F-48.85634231567383
F-0.00012964468623977154
F2.277285575866699
tp14
a(F-48.86378860473633
F-0.00012966444774065167
F3.4188432693481445
tp15
a(F-48.85523223876953
F-0.00012964174675289541
F4.5629777908325195
tp16
a(F-48.85676193237305
F-0.00012964580673724413
F5.712878704071045
tp17
a(F-48.868980407714844
F-0.00012967822840437293
F6.870631217956543
tp18
a(F-48.86235046386719
F-0.00012966063513886184
F8.033458709716797
tp19
a(F-48.868621826171875
F-0.00012967726797796786
F9.207342147827148
tp20
a(F-1.3010354042053223
F-0.07508333772420883
F-0.34109562635421753
tp21
a(F-1.4321861267089844
F-0.08265210688114166
F-0.34001269936561584
tp22
a(F-1.5784976482391357
F-0.09109580516815186
F-0.3360868990421295
tp23
a(F-1.7931500673294067
F-0.10348349064588547
F-0.3383035361766815
tp24
a(F-2.0633468627929688
F-0.1190766766667366
F-0.3396781086921692
tp25
a(F-2.3975865840911865
F-0.13836579024791718
F-0.33750465512275696
tp26
a(F-2.881626844406128
F-0.166299968957901
F-0.33734560012817383
tp27
a(F-3.6107375621795654
F-0.20837728679180145
F-0.33758825063705444
tp28
a(F-4.8381757736206055
F-0.2792132794857025
F-0.33879685401916504
tp29
a(F-7.257533550262451
F-0.41883552074432373
F-0.3384341299533844
tp30
a(F-14.521270751953125
F-0.8380290269851685
F-0.3381877839565277
tp31
a(F-36.068580627441406
F-2.081533908843994
F0.001031413092277944
tp32
a(F-36.04965591430664
F-2.08044171333313
F0.8416280746459961
tp33
a(F-36.06306457519531
F-2.0812156200408936
F1.6837639808654785
tp34
a(F-36.050994873046875
F-2.080518960952759
F2.5265698432922363
tp35
a(F-36.061195373535156
F-2.0811078548431396
F3.373645305633545
tp36
a(F-36.064002990722656
F-2.0812697410583496
F4.22402286529541
tp37
a(F-36.051265716552734
F-2.0805344581604004
F5.076984882354736
tp38
a(F-36.069820404052734
F-2.0816054344177246
F5.94010591506958
tp39
a(F-36.066009521484375
F-2.081385612487793
F6.806507110595703
tp40
a(F-1.2671629190444946
F-0.14674241840839386
F-0.33387982845306396
tp41
a(F-1.41119384765625
F-0.16342175006866455
F-0.3367076814174652
tp42
a(F-1.5836809873580933
F-0.18339644372463226
F-0.33888009190559387
tp43
a(F-1.7708067893981934
F-0.20506632328033447
F-0.3357621729373932
tp44
a(F-2.046677589416504
F-0.23701323568820953
F-0.33862218260765076
tp45
a(F-2.382035970687866
F-0.27584904432296753
F-0.33699578046798706
tp46
a(F-2.881399631500244
F-0.3336773216724396
F-0.33900922536849976
tp47
a(F-3.6116809844970703
F-0.41824671626091003
F-0.33936846256256104
tp48
a(F-4.815569877624512
F-0.557661771774292
F-0.3389035761356354
tp49
a(F-7.221311092376709
F-0.8362559676170349
F-0.33843234181404114
tp50
a(F-14.445493698120117
F-1.6728445291519165
F-0.33810874819755554
tp51
a(F-28.527435302734375
F-3.303588390350342
F0.0008198549621738493
tp52
a(F-28.525745391845703
F-3.3033926486968994
F0.6693091988563538
tp53
a(F-28.530597686767578
F-3.303954601287842
F1.3387521505355835
tp54
a(F-28.543704986572266
F-3.3054723739624023
F2.010458469390869
tp55
a(F-28.529428482055664
F-3.303819179534912
F2.6823971271514893
tp56
a(F-28.548112869262695
F-3.305982828140259
F3.360473155975342
tp57
a(F-28.53485870361328
F-3.304447889328003
F4.038608551025391
tp58
a(F-28.53369140625
F-3.3043127059936523
F4.7225751876831055
tp59
a(F-28.537250518798828
F-3.304724931716919
F5.4126386642456055
tp60
a(F-1.2725671529769897
F-0.2222907841205597
F-0.3381212055683136
tp61
a(F-1.3962082862854004
F-0.24388828873634338
F-0.33593133091926575
tp62
a(F-1.5597110986709595
F-0.2724488377571106
F-0.3365553319454193
tp63
a(F-1.774562954902649
F-0.3099789321422577
F-0.3393016755580902
tp64
a(F-2.0230913162231445
F-0.3533915877342224
F-0.3375323712825775
tp65
a(F-2.377530336380005
F-0.41530469059944153
F-0.3391846716403961
tp66
a(F-2.8429558277130127
F-0.4966047406196594
F-0.337296724319458
tp67
a(F-3.564990758895874
F-0.6227291226387024
F-0.3377959728240967
tp68
a(F-4.784321308135986
F-0.8357205986976624
F-0.33953362703323364
tp69
a(F-7.148323059082031
F-1.2486621141433716
F-0.3378266990184784
tp70
a(F-14.33410358428955
F-2.5038671493530273
F-0.33832067251205444
tp71
a(F-23.559438705444336
F-4.115339756011963
F0.0006827680626884103
tp72
a(F-23.548486709594727
F-4.113426685333252
F0.5571687817573547
tp73
a(F-23.54894256591797
F-4.113506317138672
F1.1142808198928833
tp74
a(F-23.555105209350586
F-4.114582538604736
F1.673030138015747
tp75
a(F-23.54494285583496
F-4.112807750701904
F2.232346534729004
tp76
a(F-23.55141258239746
F-4.113937854766846
F2.79559326171875
tp77
a(F-23.554969787597656
F-4.114559173583984
F3.3618054389953613
tp78
a(F-23.54801368713379
F-4.113344192504883
F3.9301505088806152
tp79
a(F-23.562530517578125
F-4.115879535675049
F4.506639003753662
tp80
a(F-1.2587326765060425
F-0.2954915165901184
F-0.3384131193161011
tp81
a(F-1.3987188339233398
F-0.3283537030220032
F-0.3405279219150543
tp82
a(F-1.552676796913147
F-0.3644958734512329
F-0.3390122354030609
tp83
a(F-1.7552099227905273
F-0.41204115748405457
F-0.33958277106285095
tp84
a(F-2.005784749984741
F-0.4708644151687622
F-0.3386150896549225
tp85
a(F-2.340862989425659
F-0.5495250821113586
F-0.3379155397415161
tp86
a(F-2.8196861743927
F-0.6619303822517395
F-0.33850476145744324
tp87
a(F-3.528676748275757
F-0.8283681869506836
F-0.3383217751979828
tp88
a(F-4.703397750854492
F-1.104137659072876
F-0.3377506136894226
tp89
a(F-7.077152252197266
F-1.661384105682373
F-0.33843111991882324
tp90
a(F-14.163437843322754
F-3.3249125480651855
F-0.33825844526290894
tp91
a(F-19.999080657958984
F-4.694848537445068
F0.0005864625563845038
tp92
a(F-19.97915267944336
F-4.690169811248779
F0.47832468152046204
tp93
a(F-19.990842819213867
F-4.6929144859313965
F0.9571419358253479
tp94
a(F-19.992374420166016
F-4.693273544311523
F1.4368289709091187
tp95
a(F-20.004465103149414
F-4.696112632751465
F1.9191676378250122
tp96
a(F-19.986522674560547
F-4.691900253295898
F2.400580406188965
tp97
a(F-19.977697372436523
F-4.689828395843506
F2.8850772380828857
tp98
a(F-19.994487762451172
F-4.693770408630371
F3.3766589164733887
tp99
a(F-19.997516632080078
F-4.694481372833252
F3.8701601028442383
tp100
a(F-1.2469704151153564
F-0.36969855427742004
F-0.34042027592658997
tp101
a(F-1.3714280128479004
F-0.40659740567207336
F-0.3390321731567383
tp102
a(F-1.526413083076477
F-0.45254698395729065
F-0.33841684460639954
tp103
a(F-1.7327823638916016
F-0.5137308239936829
F-0.34041303396224976
tp104
a(F-1.9727306365966797
F-0.5848700404167175
F-0.33817020058631897
tp105
a(F-2.3034799098968506
F-0.6829296946525574
F-0.3376464247703552
tp106
a(F-2.780280113220215
F-0.8242901563644409
F-0.3389207124710083
tp107
a(F-3.4705021381378174
F-1.0289254188537598
F-0.3378749191761017
tp108
a(F-4.633512496948242
F-1.3737317323684692
F-0.3378627896308899
tp109
a(F-6.964633464813232
F-2.0648562908172607
F-0.33818599581718445
tp110
a(F-13.948845863342285
F-4.135517597198486
F-0.33827027678489685
tp111
a(F-17.30399513244629
F-5.130243301391602
F0.0005152550293132663
tp112
a(F-17.299842834472656
F-5.129012107849121
F0.42056533694267273
tp113
a(F-17.31656265258789
F-5.133969783782959
F0.8418845534324646
tp114
a(F-17.301651000976562
F-5.129548072814941
F1.2626233100891113
tp115
a(F-17.316879272460938
F-5.134063243865967
F1.6869460344314575
tp116
a(F-17.30959129333496
F-5.131902694702148
F2.1111128330230713
tp117
a(F-17.28666114807129
F-5.1251044273376465
F2.5349462032318115
tp118
a(F-17.301734924316406
F-5.129572868347168
F2.9669628143310547
tp119
a(F-17.3137149810791
F-5.133125305175781
F3.402426242828369
tp120
a(F-1.3396928310394287
F-0.48275887966156006
F-0.33751240372657776
tp121
a(F-1.4972397089004517
F-0.5395309925079346
F-0.33828893303871155
tp122
a(F-1.6815001964569092
F-0.6059293150901794
F-0.33664771914482117
tp123
a(F-1.9408284425735474
F-0.6993783712387085
F-0.3390558958053589
tp124
a(F-2.267453193664551
F-0.8170776963233948
F-0.3387136161327362
tp125
a(F-2.7267675399780273
F-0.9825918078422546
F-0.3387460708618164
tp126
a(F-3.4279770851135254
F-1.235273003578186
F-0.34010905027389526
tp127
a(F-4.553418159484863
F-1.6408262252807617
F-0.33836400508880615
tp128
a(F-6.840721607208252
F-2.465056896209717
F-0.33851340413093567
tp129
a(F-13.694305419921875
F-4.934749126434326
F-0.3384403884410858
tp130
a(F-15.194502830505371
F-5.475345611572266
F0.0004610828182194382
tp131
a(F-15.187893867492676
F-5.472964286804199
F0.37627512216567993
tp132
a(F-15.2034273147583
F-5.4785614013671875
F0.7532669901847839
tp133
a(F-15.205382347106934
F-5.479266166687012
F1.1308375597000122
tp134
a(F-15.181567192077637
F-5.470684051513672
F1.5071786642074585
tp135
a(F-15.20698070526123
F-5.479842185974121
F1.8900974988937378
tp136
a(F-15.195131301879883
F-5.475572109222412
F2.270798921585083
tp137
a(F-15.192657470703125
F-5.4746809005737305
F2.655050754547119
tp138
a(F-15.199564933776855
F-5.477169513702393
F3.044010877609253
tp139
a(F-1.3090988397598267
F-0.5589019060134888
F-0.33736908435821533
tp140
a(F-1.462343454360962
F-0.6243276596069336
F-0.33798250555992126
tp141
a(F-1.659289002418518
F-0.7084108591079712
F-0.33982014656066895
tp142
a(F-1.882102131843567
F-0.8035378456115723
F-0.33633777499198914
tp143
a(F-2.2184932231903076
F-0.9471554160118103
F-0.3390008211135864
tp144
a(F-2.6564667224884033
F-1.134142279624939
F-0.33758169412612915
tp145
a(F-3.3291549682617188
F-1.4213372468948364
F-0.33788007497787476
tp146
a(F-4.449630260467529
F-1.8997089862823486
F-0.3382352590560913
tp147
a(F-6.695990562438965
F-2.85876202583313
F-0.3389511704444885
tp148
a(F-13.386590003967285
F-5.715222358703613
F-0.3384234607219696
tp149
a(F-13.476157188415527
F-5.7534613609313965
F0.0004183182609267533
tp150
a(F-13.480052947998047
F-5.755124568939209
F0.34162360429763794
tp151
a(F-13.493618965148926
F-5.760916709899902
F0.6838867664337158
tp152
a(F-13.473755836486816
F-5.75243616104126
F1.0250378847122192
tp153
a(F-13.477815628051758
F-5.754169940948486
F1.3687243461608887
tp154
a(F-13.466609954833984
F-5.749385356903076
F1.712173581123352
tp155
a(F-13.470701217651367
F-5.751132488250732
F2.059267520904541
tp156
a(F-13.477846145629883
F-5.754182815551758
F2.4093945026397705
tp157
a(F-13.479621887207031
F-5.754940986633301
F2.761474847793579
tp158
a(F-1.284836769104004
F-0.638417661190033
F-0.3400452435016632
tp159
a(F-1.4227855205535889
F-0.706962525844574
F-0.3377070724964142
tp160
a(F-1.6144951581954956
F-0.8022204041481018
F-0.3395625054836273
tp161
a(F-1.841713547706604
F-0.9151220917701721
F-0.33799514174461365
tp162
a(F-2.161314010620117
F-1.0739271640777588
F-0.3391692042350769
tp163
a(F-2.5880048274993896
F-1.2859439849853516
F-0.337750107049942
tp164
a(F-3.251169204711914
F-1.6154611110687256
F-0.33886292576789856
tp165
a(F-4.338016033172607
F-2.1555001735687256
F-0.3386428952217102
tp166
a(F-6.50065279006958
F-3.2300846576690674
F-0.33793655037879944
tp167
a(F-12.04781723022461
F-5.98639440536499
F-0.3127913773059845
tp168
a(F-12.040163040161133
F-5.982590675354004
F0.00038382125785574317
tp169
a(F-12.052495956420898
F-5.9887189865112305
F0.3136816918849945
tp170
a(F-12.059441566467285
F-5.992170333862305
F0.6276808381080627
tp171
a(F-12.05445384979248
F-5.989691734313965
F0.941791296005249
tp172
a(F-12.050992965698242
F-5.987972259521484
F1.2568261623382568
tp173
a(F-12.040167808532715
F-5.982593536376953
F1.572092056274414
tp174
a(F-12.045934677124023
F-5.985458850860596
F1.8911194801330566
tp175
a(F-12.043844223022461
F-5.984419822692871
F2.2111001014709473
tp176
a(F-12.046476364135742
F-5.9857282638549805
F2.534424304962158
tp177
a(F-1.0264110565185547
F-0.5860458612442017
F-0.33893534541130066
tp178
a(F-1.1285927295684814
F-0.6443880796432495
F-0.3401530683040619
tp179
a(F-1.2377984523773193
F-0.7067408561706543
F-0.33782804012298584
tp180
a(F-1.3704497814178467
F-0.7824801802635193
F-0.3354446291923523
tp181
a(F-1.5523663759231567
F-0.8863484263420105
F-0.3366931080818176
tp182
a(F-1.7851735353469849
F-1.0192734003067017
F-0.33785149455070496
tp183
a(F-2.084325075149536
F-1.1900787353515625
F-0.33730363845825195
tp184
a(F-2.5170092582702637
F-1.4371267557144165
F-0.33874449133872986
tp185
a(F-3.154162883758545
F-1.800919771194458
F-0.3390202522277832
tp186
a(F-4.2041144371032715
F-2.4004063606262207
F-0.33844053745269775
tp187
a(F-6.312154769897461
F-3.6040256023406982
F-0.3383863568305969
tp188
a(F-10.83096694946289
F-6.184113502502441
F-0.2899817228317261
tp189
a(F-10.830119132995605
F-6.183629512786865
F0.00035603027208708227
tp190
a(F-10.8236083984375
F-6.179912090301514
F0.29049673676490784
tp191
a(F-10.819130897521973
F-6.177355766296387
F0.5807123184204102
tp192
a(F-10.83876895904541
F-6.188568592071533
F0.8732610940933228
tp193
a(F-10.838276863098145
F-6.188287734985352
F1.165653944015503
tp194
a(F-10.807267189025879
F-6.170581817626953
F1.4551854133605957
tp195
a(F-10.831243515014648
F-6.184271812438965
F1.7535324096679688
tp196
a(F-10.828511238098145
F-6.182711601257324
F2.0500717163085938
tp197
a(F-10.830129623413086
F-6.18363618850708
F2.349686861038208
tp198
a(F-0.9060491323471069
F-0.5890169739723206
F-0.3373076617717743
tp199
a(F-0.9795246720314026
F-0.6367829442024231
F-0.33502987027168274
tp200
a(F-1.091391682624817
F-0.7095070481300354
F-0.34071433544158936
tp201
a(F-1.1944137811660767
F-0.776481032371521
F-0.3376550078392029
tp202
a(F-1.3182414770126343
F-0.8569806814193726
F-0.33421456813812256
tp203
a(F-1.5156288146972656
F-0.9853010177612305
F-0.3404909074306488
tp204
a(F-1.7313072681427002
F-1.1255121231079102
F-0.33938464522361755
tp205
a(F-2.0222532749176025
F-1.3146543502807617
F-0.33897194266319275
tp206
a(F-2.4330484867095947
F-1.5817097425460815
F-0.3391648530960083
tp207
a(F-3.044321060180664
F-1.979094386100769
F-0.3389257788658142
tp208
a(F-4.058342456817627
F-2.638303518295288
F-0.33839911222457886
tp209
a(F-6.107285976409912
F-3.970309019088745
F-0.33912214636802673
tp210
a(F-9.780020713806152
F-6.357931137084961
F-0.27121633291244507
tp211
a(F-9.763700485229492
F-6.347321510314941
F0.0003324610588606447
tp212
a(F-9.781551361083984
F-6.358926296234131
F0.27192527055740356
tp213
a(F-9.782465934753418
F-6.359520435333252
F0.5438631772994995
tp214
a(F-9.764949798583984
F-6.348133563995361
F0.8149046301841736
tp215
a(F-9.766709327697754
F-6.349277496337891
F1.0880035161972046
tp216
a(F-9.782707214355469
F-6.359677314758301
F1.364376187324524
tp217
a(F-9.771074295043945
F-6.352115154266357
F1.6385149955749512
tp218
a(F-9.779309272766113
F-6.357469081878662
F1.9177021980285645
tp219
a(F-9.773170471191406
F-6.353477478027344
F2.196263313293457
tp220
a(F-0.6997582316398621
F-0.5145953297615051
F-0.33926764130592346
tp221
a(F-0.750666081905365
F-0.5520324110984802
F-0.33917436003685
tp222
a(F-0.8156424760818481
F-0.5998154282569885
F-0.3420654237270355
tp223
a(F-0.8749433159828186
F-0.6434246897697449
F-0.3389866054058075
tp224
a(F-0.9605192542076111
F-0.7063563466072083
F-0.34190261363983154
tp225
a(F-1.0451793670654297
F-0.7686145901679993
F-0.3395695984363556
tp226
a(F-1.1477065086364746
F-0.8440120220184326
F-0.3376582860946655
tp227
a(F-1.2909340858459473
F-0.9493401646614075
F-0.34061411023139954
tp228
a(F-1.4439860582351685
F-1.061893105506897
F-0.33760109543800354
tp229
a(F-1.6566296815872192
F-1.2182691097259521
F-0.3379649519920349
tp230
a(F-1.9328283071517944
F-1.4213829040527344
F-0.3371706008911133
tp231
a(F-2.333296060562134
F-1.7158828973770142
F-0.3384995460510254
tp232
a(F-2.918023109436035
F-2.145885467529297
F-0.3380890190601349
tp233
a(F-3.907709836959839
F-2.8736913204193115
F-0.33910250663757324
tp234
a(F-5.856698989868164
F-4.3069586753845215
F-0.33844566345214844
tp235
a(F-8.857146263122559
F-6.513457775115967
F-0.25562188029289246
tp236
a(F-8.838531494140625
F-6.4997687339782715
F0.00031320928246714175
tp237
a(F-8.84610366821289
F-6.505337715148926
F0.25593051314353943
tp238
a(F-8.843003273010254
F-6.50305700302124
F0.5116456747055054
tp239
a(F-8.85443115234375
F-6.5114617347717285
F0.7689988017082214
tp240
a(F-8.84079360961914
F-6.501431941986084
F1.024947166442871
tp241
a(F-8.843420028686523
F-6.503363609313965
F1.2835817337036133
tp242
a(F-8.847999572753906
F-6.506731986999512
F1.544121265411377
tp243
a(F-8.852490425109863
F-6.51003360748291
F1.8066190481185913
tp244
a(F-8.845239639282227
F-6.504701614379883
F2.06864857673645
tp245
a(F-0.6712019443511963
F-0.5559208989143372
F-0.3404102027416229
tp246
a(F-0.7121754884719849
F-0.5898571014404297
F-0.33660316467285156
tp247
a(F-0.7726556658744812
F-0.63994961977005
F-0.3389613926410675
tp248
a(F-0.8293598294258118
F-0.6869146823883057
F-0.33612480759620667
tp249
a(F-0.9236633777618408
F-0.7650212645530701
F-0.34392598271369934
tp250
a(F-0.9933820962905884
F-0.822765588760376
F-0.3376052677631378
tp251
a(F-1.0993517637252808
F-0.9105346202850342
F-0.33832818269729614
tp252
a(F-1.2255849838256836
F-1.0150868892669678
F-0.3382648825645447
tp253
a(F-1.3810961246490479
F-1.1438884735107422
F-0.33776888251304626
tp254
a(F-1.5935297012329102
F-1.319835901260376
F-0.34006449580192566
tp255
a(F-1.8586336374282837
F-1.53940749168396
F-0.33916038274765015
tp256
a(F-2.223626136779785
F-1.8417112827301025
F-0.33744651079177856
tp257
a(F-2.78144907951355
F-2.3037261962890625
F-0.33710744976997375
tp258
a(F-3.723172187805176
F-3.083705425262451
F-0.3379688858985901
tp259
a(F-5.592472076416016
F-4.6319475173950195
F-0.33806076645851135
tp260
a(F-8.018814086914062
F-6.641557216644287
F-0.2420857846736908
tp261
a(F-8.012598991394043
F-6.636409759521484
F0.00029701803578063846
tp262
a(F-8.009973526000977
F-6.634235382080078
F0.24241307377815247
tp263
a(F-8.01255989074707
F-6.636377334594727
F0.48494860529899597
tp264
a(F-8.016530990600586
F-6.639666557312012
F0.7282934188842773
tp265
a(F-8.024428367614746
F-6.646206855773926
F0.973148763179779
tp266
a(F-8.01678466796875
F-6.639876842498779
F1.217190146446228
tp267
a(F-8.027084350585938
F-6.648407459259033
F1.4653759002685547
tp268
a(F-8.015999794006348
F-6.639225959777832
F1.711251139640808
tp269
a(F-8.011945724487305
F-6.635868549346924
F1.9600629806518555
tp270
a(F-0.6330577731132507
F-0.5890130996704102
F-0.33774176239967346
tp271
a(F-0.6817244291305542
F-0.634293794631958
F-0.33894720673561096
tp272
a(F-0.7323287129402161
F-0.6813772916793823
F-0.3379577398300171
tp273
a(F-0.7939332723617554
F-0.7386958003044128
F-0.33848047256469727
tp274
a(F-0.8601199388504028
F-0.8002775311470032
F-0.3369010090827942
tp275
a(F-0.9433634877204895
F-0.8777294158935547
F-0.33725935220718384
tp276
a(F-1.0498263835906982
F-0.9767852425575256
F-0.33986860513687134
tp277
a(F-1.1664777994155884
F-1.0853207111358643
F-0.3386741280555725
tp278
a(F-1.3119007349014282
F-1.220625877380371
F-0.33751165866851807
tp279
a(F-1.5006815195083618
F-1.3962724208831787
F-0.3368850648403168
tp280
a(F-1.7705862522125244
F-1.6473987102508545
F-0.3398759961128235
tp281
a(F-2.114075183868408
F-1.966989517211914
F-0.3374859392642975
tp282
a(F-2.6483640670776367
F-2.4641053676605225
F-0.3376501798629761
tp283
a(F-3.537367820739746
F-3.29125714302063
F-0.33778151869773865
tp284
a(F-5.3280415534973145
F-4.957345962524414
F-0.3388056457042694
tp285
a(F-7.278255462646484
F-6.771874904632568
F-0.2311418205499649
tp286
a(F-7.262238025665283
F-6.75697135925293
F0.0002831861493177712
tp287
a(F-7.27617883682251
F-6.769942283630371
F0.23164363205432892
tp288
a(F-7.275753974914551
F-6.769546985626221
F0.46322765946388245
tp289
a(F-7.2686333656311035
F-6.762922286987305
F0.6946479082107544
tp290
a(F-7.268528938293457
F-6.762824535369873
F0.9272646903991699
tp291
a(F-7.265226364135742
F-6.75975227355957
F1.160377860069275
tp292
a(F-7.270380973815918
F-6.764548301696777
F1.3961769342422485
tp293
a(F-7.262370586395264
F-6.757094860076904
F1.630897045135498
tp294
a(F-7.271614074707031
F-6.765695095062256
F1.871349573135376
tp295
a(F-0.6004396080970764
F-0.6269785761833191
F-0.33907872438430786
tp296
a(F-0.635805606842041
F-0.6639077663421631
F-0.3346088230609894
tp297
a(F-0.6862180233001709
F-0.7165483236312866
F-0.33520326018333435
tp298
a(F-0.7497128844261169
F-0.7828496694564819
F-0.33832523226737976
tp299
a(F-0.8109056949615479
F-0.8467471599578857
F-0.336204469203949
tp300
a(F-0.8905805945396423
F-0.9299436211585999
F-0.33701401948928833
tp301
a(F-0.9934371113777161
F-1.0373462438583374
F-0.34042680263519287
tp302
a(F-1.0905386209487915
F-1.1387395858764648
F-0.33514779806137085
tp303
a(F-1.2392592430114746
F-1.2940336465835571
F-0.3374735713005066
tp304
a(F-1.4293078184127808
F-1.4924821853637695
F-0.33963215351104736
tp305
a(F-1.6714260578155518
F-1.7453018426895142
F-0.33960992097854614
tp306
a(F-2.001366376876831
F-2.089825391769409
F-0.33818289637565613
tp307
a(F-2.5026192665100098
F-2.6132333278656006
F-0.33773332834243774
tp308
a(F-3.3496463298797607
F-3.4976983070373535
F-0.3385668396949768
tp309
a(F-5.036491870880127
F-5.259100914001465
F-0.33900099992752075
tp310
a(F-6.589894771575928
F-6.881163597106934
F-0.22152334451675415
tp311
a(F-6.574254989624023
F-6.864832401275635
F0.0002713550056796521
tp312
a(F-6.577387809753418
F-6.868103504180908
F0.22164617478847504
tp313
a(F-6.580862998962402
F-6.871732234954834
F0.44349542260169983
tp314
a(F-6.588442325592041
F-6.8796467781066895
F0.6664760112762451
tp315
a(F-6.586490631103516
F-6.877608776092529
F0.8894081115722656
tp316
a(F-6.587098598480225
F-6.878243446350098
F1.1136127710342407
tp317
a(F-6.581076622009277
F-6.871955394744873
F1.3377348184585571
tp318
a(F-6.583122730255127
F-6.874092102050781
F1.5648398399353027
tp319
a(F-6.581992149353027
F-6.87291145324707
F1.7929627895355225
tp320
a(F-0.5645743608474731
F-0.661999523639679
F-0.33983322978019714
tp321
a(F-0.5946069359779358
F-0.6972146034240723
F-0.33354657888412476
tp322
a(F-0.6499305367469788
F-0.7620850801467896
F-0.3383970558643341
tp323
a(F-0.7038557529449463
F-0.8253158330917358
F-0.33856073021888733
tp324
a(F-0.7660059332847595
F-0.8981909155845642
F-0.33851566910743713
tp325
a(F-0.8385762572288513
F-0.9832842350006104
F-0.33824455738067627
tp326
a(F-0.9340929388999939
F-1.0952836275100708
F-0.341182678937912
tp327
a(F-1.03238844871521
F-1.2105414867401123
F-0.3381831645965576
tp328
a(F-1.1610848903656006
F-1.3614461421966553
F-0.33701953291893005
tp329
a(F-1.3451764583587646
F-1.5773054361343384
F-0.3407028615474701
tp330
a(F-1.5659828186035156
F-1.8362149000167847
F-0.33915144205093384
tp331
a(F-1.8824961185455322
F-2.2073469161987305
F-0.33905693888664246
tp332
a(F-2.363983392715454
F-2.7719216346740723
F-0.3400455117225647
tp333
a(F-3.141669273376465
F-3.6838080883026123
F-0.33846941590309143
tp334
a(F-4.714400291442871
F-5.527935981750488
F-0.33823052048683167
tp335
a(F-5.939616680145264
F-6.964580535888672
F-0.21282024681568146
tp336
a(F-5.948672771453857
F-6.975199222564697
F0.00026171276113018394
tp337
a(F-5.949799060821533
F-6.976519584655762
F0.21370889246463776
tp338
a(F-5.961731433868408
F-6.990510940551758
F0.4282448887825012
tp339
a(F-5.965782165527344
F-6.995260715484619
F0.6432542204856873
tp340
a(F-5.954463481903076
F-6.981988906860352
F0.8570440411567688
tp341
a(F-5.941810131072998
F-6.967152118682861
F1.0707111358642578
tp342
a(F-5.952850818634033
F-6.980097770690918
F1.289767861366272
tp343
a(F-5.942366123199463
F-6.967803955078125
F1.5056042671203613
tp344
a(F-5.946044445037842
F-6.972116947174072
F1.7264561653137207
tp345
a(F-0.5241967439651489
F-0.6917096972465515
F-0.33899202942848206
tp346
a(F-0.5562582612037659
F-0.7340168356895447
F-0.33523815870285034
tp347
a(F-0.6012539863586426
F-0.7933914661407471
F-0.33633190393447876
tp348
a(F-0.657826840877533
F-0.8680427670478821
F-0.33994990587234497
tp349
a(F-0.7202272415161133
F-0.9503839612007141
F-0.3419531583786011
tp350
a(F-0.7800917029380798
F-1.0293787717819214
F-0.3380526602268219
tp351
a(F-0.8607739210128784
F-1.1358438730239868
F-0.3377819359302521
tp352
a(F-0.9567047357559204
F-1.2624305486679077
F-0.33669543266296387
tp353
a(F-1.0841445922851562
F-1.4305951595306396
F-0.3380872309207916
tp354
a(F-1.249404788017273
F-1.6486661434173584
F-0.3399774730205536
tp355
a(F-1.4504673480987549
F-1.913980484008789
F-0.33749327063560486
tp356
a(F-1.7514784336090088
F-2.311182975769043
F-0.3389173448085785
tp357
a(F-2.179821491241455
F-2.8764078617095947
F-0.33687126636505127
tp358
a(F-2.9229278564453125
F-3.8569822311401367
F-0.33831986784935
tp359
a(F-4.37542200088501
F-5.773637294769287
F-0.33725371956825256
tp360
a(F-5.356572151184082
F-7.068325042724609
F-0.20620155334472656
tp361
a(F-5.363447189331055
F-7.077396869659424
F0.0002535124367568642
tp362
a(F-5.363210678100586
F-7.077085018157959
F0.2069643884897232
tp363
a(F-5.366565704345703
F-7.081512451171875
F0.4141586124897003
tp364
a(F-5.352753639221191
F-7.063285827636719
F0.6200731992721558
tp365
a(F-5.366955757141113
F-7.082026958465576
F0.8299252390861511
tp366
a(F-5.358911991119385
F-7.071412563323975
F1.0374821424484253
tp367
a(F-5.3588032722473145
F-7.071268558502197
F1.2473974227905273
tp368
a(F-5.360755920410156
F-7.073845386505127
F1.4592440128326416
tp369
a(F-5.358582019805908
F-7.070977210998535
F1.6715823411941528
tp370
a(F-0.4804456830024719
F-0.7162441611289978
F-0.3368677496910095
tp371
a(F-0.5102318525314331
F-0.7606492042541504
F-0.3333991765975952
tp372
a(F-0.5581256151199341
F-0.832048773765564
F-0.3385026156902313
tp373
a(F-0.595320463180542
F-0.8874984979629517
F-0.33356013894081116
tp374
a(F-0.6605231165885925
F-0.9847020506858826
F-0.34002047777175903
tp375
a(F-0.7217352390289307
F-1.0759565830230713
F-0.33910685777664185
tp376
a(F-0.7901062965393066
F-1.177883505821228
F-0.33616524934768677
tp377
a(F-0.8866442441940308
F-1.3218014240264893
F-0.338320791721344
tp378
a(F-1.0007603168487549
F-1.4919246435165405
F-0.33836981654167175
tp379
a(F-1.1492077112197876
F-1.7132288217544556
F-0.33905136585235596
tp380
a(F-1.3369601964950562
F-1.9931285381317139
F-0.3372839093208313
tp381
a(F-1.6114158630371094
F-2.402284622192383
F-0.3380777835845947
tp382
a(F-2.0178236961364746
F-3.0081539154052734
F-0.3381008803844452
tp383
a(F-2.6926181316375732
F-4.014131546020508
F-0.3379124402999878
tp384
a(F-4.044155597686768
F-6.02899169921875
F-0.33797505497932434
tp385
a(F-4.804733753204346
F-7.1628546714782715
F-0.20053689181804657
tp386
a(F-4.8080573081970215
F-7.16780948638916
F0.00024640237097628415
tp387
a(F-4.806549072265625
F-7.165561199188232
F0.20110557973384857
tp388
a(F-4.809340000152588
F-7.169722080230713
F0.4024164378643036
tp389
a(F-4.809878826141357
F-7.170525074005127
F0.6041153073310852
tp390
a(F-4.8061203956604
F-7.164921760559082
F0.8057968616485596
tp391
a(F-4.804076194763184
F-7.161874771118164
F1.0084024667739868
tp392
a(F-4.807939052581787
F-7.167633533477783
F1.2134335041046143
tp393
a(F-4.803033828735352
F-7.16032075881958
F1.4175472259521484
tp394
a(F-4.810580253601074
F-7.171570777893066
F1.6270290613174438
tp395
a(F-0.4457343816757202
F-0.7551882863044739
F-0.3425164222717285
tp396
a(F-0.4759695827960968
F-0.8064144849777222
F-0.3408523499965668
tp397
a(F-0.5118721127510071
F-0.8672425150871277
F-0.3402370810508728
tp398
a(F-0.5529285669326782
F-0.9368026256561279
F-0.33953338861465454
tp399
a(F-0.5984657406806946
F-1.0139542818069458
F-0.33763420581817627
tp400
a(F-0.658427894115448
F-1.115545630455017
F-0.3390447497367859
tp401
a(F-0.7252465486526489
F-1.2287535667419434
F-0.33817625045776367
tp402
a(F-0.808419406414032
F-1.3696696758270264
F-0.3380695879459381
tp403
a(F-0.9139106273651123
F-1.548398733139038
F-0.3386533558368683
tp404
a(F-1.0531129837036133
F-1.7842432260513306
F-0.340511679649353
tp405
a(F-1.2247811555862427
F-2.0750932693481445
F-0.3386302590370178
tp406
a(F-1.4678189754486084
F-2.4868617057800293
F-0.3374983072280884
tp407
a(F-1.8449848890304565
F-3.1258773803710938
F-0.3388020098209381
tp408
a(F-2.456120014190674
F-4.161296844482422
F-0.33780738711357117
tp409
a(F-3.699105978012085
F-6.267233848571777
F-0.33880019187927246
tp410
a(F-4.275069713592529
F-7.243063449859619
F-0.19555020332336426
tp411
a(F-4.278739929199219
F-7.249281406402588
F0.00024031518842093647
tp412
a(F-4.2832818031311035
F-7.256977558135986
F0.1964072436094284
tp413
a(F-4.2790398597717285
F-7.249789714813232
F0.3923978805541992
tp414
a(F-4.278099536895752
F-7.248197078704834
F0.5888798236846924
tp415
a(F-4.274780750274658
F-7.242574214935303
F0.7854796051979065
tp416
a(F-4.283179759979248
F-7.2568039894104
F0.9853270053863525
tp417
a(F-4.282156467437744
F-7.255070209503174
F1.184430718421936
tp418
a(F-4.276485443115234
F-7.245462894439697
F1.3832446336746216
tp419
a(F-4.274420738220215
F-7.241963863372803
F1.5844013690948486
tp420
a(F-0.395551472902298
F-0.7680894136428833
F-0.33745336532592773
tp421
a(F-0.4262438118457794
F-0.8276883959770203
F-0.3388836979866028
tp422
a(F-0.45788028836250305
F-0.8891207575798035
F-0.3378918170928955
tp423
a(F-0.4942663908004761
F-0.9597759246826172
F-0.3369613289833069
tp424
a(F-0.5417132377624512
F-1.05190908908844
F-0.33929866552352905
tp425
a(F-0.5877553820610046
F-1.1413147449493408
F-0.33600902557373047
tp426
a(F-0.6519632339477539
F-1.265994668006897
F-0.33750954270362854
tp427
a(F-0.7291409969329834
F-1.4158599376678467
F-0.33852165937423706
tp428
a(F-0.822672426700592
F-1.59748113155365
F-0.3384419083595276
tp429
a(F-0.9464019536972046
F-1.8377413749694824
F-0.339733362197876
tp430
a(F-1.0916879177093506
F-2.1198604106903076
F-0.3350975513458252
tp431
a(F-1.3215010166168213
F-2.5661158561706543
F-0.33734330534935
tp432
a(F-1.6579017639160156
F-3.2193453311920166
F-0.338000625371933
tp433
a(F-2.218435287475586
F-4.307799816131592
F-0.3387441635131836
tp434
a(F-3.331449031829834
F-6.469071865081787
F-0.33875492215156555
tp435
a(F-3.780606985092163
F-7.341255187988281
F-0.19199155271053314
tp436
a(F-3.7806386947631836
F-7.3413166999816895
F0.00023574150691274554
tp437
a(F-3.7757303714752197
F-7.331785678863525
F0.19221504032611847
tp438
a(F-3.7692434787750244
F-7.319189071655273
F0.38374263048171997
tp439
a(F-3.775658130645752
F-7.3316450119018555
F0.5769975781440735
tp440
a(F-3.7721197605133057
F-7.324774742126465
F0.7695060968399048
tp441
a(F-3.7751657962799072
F-7.330689430236816
F0.9641745686531067
tp442
a(F-3.771982431411743
F-7.324507713317871
F1.1583033800125122
tp443
a(F-3.7786734104156494
F-7.33750057220459
F1.3569282293319702
tp444
a(F-3.768463134765625
F-7.317674160003662
F1.5508071184158325
tp445
a(F-0.35389983654022217
F-0.7969353199005127
F-0.3405873775482178
tp446
a(F-0.3754178285598755
F-0.8453909754753113
F-0.336701363325119
tp447
a(F-0.4043714702129364
F-0.9105907082557678
F-0.33662286400794983
tp448
a(F-0.4439501166343689
F-0.9997165203094482
F-0.3414212465286255
tp449
a(F-0.4798121154308319
F-1.0804729461669922
F-0.339016854763031
tp450
a(F-0.5244622826576233
F-1.1810191869735718
F-0.33822518587112427
tp451
a(F-0.5810331702232361
F-1.308409333229065
F-0.3393135964870453
tp452
a(F-0.6440176367759705
F-1.4502419233322144
F-0.3372951149940491
tp453
a(F-0.7340286374092102
F-1.6529346704483032
F-0.3406493663787842
tp454
a(F-0.8405836820602417
F-1.8928825855255127
F-0.3403932452201843
tp455
a(F-0.9716576337814331
F-2.1880435943603516
F-0.3364522457122803
tp456
a(F-1.1773850917816162
F-2.6513144969940186
F-0.33904752135276794
tp457
a(F-1.4748941659927368
F-3.32126522064209
F-0.33920085430145264
tp458
a(F-1.9679975509643555
F-4.431668281555176
F-0.33899009227752686
tp459
a(F-2.941889524459839
F-6.624743461608887
F-0.33745521306991577
tp460
a(F-3.291766881942749
F-7.412620544433594
F-0.18857626616954803
tp461
a(F-3.2869982719421387
F-7.401882171630859
F0.00023121059348341078
tp462
a(F-3.289811134338379
F-7.408216953277588
F0.1889273077249527
tp463
a(F-3.288518190383911
F-7.405304908752441
F0.37767958641052246
tp464
a(F-3.285527467727661
F-7.398570537567139
F0.5664007663726807
tp465
a(F-3.2957980632781982
F-7.421698570251465
F0.7584458589553833
tp466
a(F-3.2940011024475098
F-7.417652130126953
F0.9490318298339844
tp467
a(F-3.295958995819092
F-7.422060966491699
F1.1417522430419922
tp468
a(F-3.286595344543457
F-7.400975227355957
F1.3313772678375244
tp469
a(F-3.289719581604004
F-7.408010482788086
F1.527178406715393
tp470
a(F-0.30725130438804626
F-0.8156083226203918
F-0.34042367339134216
tp471
a(F-0.3320346176624298
F-0.8813964128494263
F-0.342839777469635
tp472
a(F-0.35265862941741943
F-0.9361435174942017
F-0.33798348903656006
tp473
a(F-0.38179153203964233
F-1.0134778022766113
F-0.33803412318229675
tp474
a(F-0.4176269471645355
F-1.1086039543151855
F-0.339716374874115
tp475
a(F-0.45764508843421936
F-1.214833378791809
F-0.33978042006492615
tp476
a(F-0.5013084411621094
F-1.330739140510559
F-0.33704137802124023
tp477
a(F-0.5612754821777344
F-1.4899235963821411
F-0.33842796087265015
tp478
a(F-0.6306802034378052
F-1.6741605997085571
F-0.3369625508785248
tp479
a(F-0.7274693846702576
F-1.9310905933380127
F-0.3391505777835846
tp480
a(F-0.844557523727417
F-2.2419047355651855
F-0.33667993545532227
tp481
a(F-1.0196081399917603
F-2.7065820693969727
F-0.3380283713340759
tp482
a(F-1.279709815979004
F-3.3970303535461426
F-0.3388327956199646
tp483
a(F-1.7092686891555786
F-4.537308216094971
F-0.33896172046661377
tp484
a(F-2.5592143535614014
F-6.793515682220459
F-0.33796700835227966
tp485
a(F-2.8208136558532715
F-7.487939357757568
F-0.1860416680574417
tp486
a(F-2.822707414627075
F-7.492966175079346
F0.0002285872324137017
tp487
a(F-2.8152387142181396
F-7.473140239715576
F0.18613019585609436
tp488
a(F-2.8186280727386475
F-7.482137203216553
F0.3726823925971985
tp489
a(F-2.8215394020080566
F-7.489865779876709
F0.5599931478500366
tp490
a(F-2.816481590270996
F-7.476439476013184
F0.7461888194084167
tp491
a(F-2.8202526569366455
F-7.4864501953125
F0.9354550242424011
tp492
a(F-2.8187155723571777
F-7.482369899749756
F1.1241368055343628
tp493
a(F-2.8134965896606445
F-7.468515872955322
F1.3121368885040283
tp494
a(F-2.8190767765045166
F-7.483328342437744
F1.506661295890808
tp495
a(F-0.2608373761177063
F-0.8354306817054749
F-0.34184587001800537
tp496
a(F-0.27652183175086975
F-0.885666012763977
F-0.33773162961006165
tp497
a(F-0.2979988157749176
F-0.954454243183136
F-0.3378235697746277
tp498
a(F-0.32572928071022034
F-1.043271541595459
F-0.3411343991756439
tp499
a(F-0.3532566428184509
F-1.1314384937286377
F-0.33990126848220825
tp500
a(F-0.3826228678226471
F-1.2254949808120728
F-0.3360276222229004
tp501
a(F-0.4286760985851288
F-1.372997760772705
F-0.34091171622276306
tp502
a(F-0.47180747985839844
F-1.511142373085022
F-0.33650341629981995
tp503
a(F-0.5374056696891785
F-1.7212456464767456
F-0.33963245153427124
tp504
a(F-0.6115984320640564
F-1.9588760137557983
F-0.3372707664966583
tp505
a(F-0.7192836403846741
F-2.303778648376465
F-0.3391740918159485
tp506
a(F-0.869080126285553
F-2.7835588455200195
F-0.34081146121025085
tp507
a(F-1.08488130569458
F-3.4747440814971924
F-0.33977439999580383
tp508
a(F-1.4450984001159668
F-4.628476142883301
F-0.3389785587787628
tp509
a(F-2.1646714210510254
F-6.9331817626953125
F-0.3381381332874298
tp510
a(F-2.3593192100524902
F-7.556614398956299
F-0.18405897915363312
tp511
a(F-2.3629724979400635
F-7.5683159828186035
F0.00022634936613030732
tp512
a(F-2.3612918853759766
F-7.562932968139648
F0.1846655160188675
tp513
a(F-2.3590638637542725
F-7.5557966232299805
F0.368956595659256
tp514
a(F-2.3563284873962402
F-7.547036170959473
F0.5531805753707886
tp515
a(F-2.357630491256714
F-7.551206111907959
F0.7388428449630737
tp516
a(F-2.3592803478240967
F-7.556489944458008
F0.9256544709205627
tp517
a(F-2.3597958087921143
F-7.558141708374023
F1.1132093667984009
tp518
a(F-2.3602793216705322
F-7.559689998626709
F1.3020589351654053
tp519
a(F-2.359774112701416
F-7.558072090148926
F1.4918105602264404
tp520
a(F-0.20964692533016205
F-0.8385649919509888
F-0.3376162648200989
tp521
a(F-0.22597070038318634
F-0.9038583040237427
F-0.33913201093673706
tp522
a(F-0.24558570981025696
F-0.9823161363601685
F-0.3420998156070709
tp523
a(F-0.26217326521873474
F-1.0486645698547363
F-0.33738940954208374
tp524
a(F-0.289553701877594
F-1.1581833362579346
F-0.3423464894294739
tp525
a(F-0.3134543001651764
F-1.2537832260131836
F-0.33826154470443726
tp526
a(F-0.3452920913696289
F-1.3811308145523071
F-0.3374221920967102
tp527
a(F-0.3855905830860138
F-1.5423204898834229
F-0.3379289507865906
tp528
a(F-0.4355615973472595
F-1.7421990633010864
F-0.33824455738067627
tp529
a(F-0.495059072971344
F-1.9801825284957886
F-0.3354622721672058
tp530
a(F-0.5822023749351501
F-2.3287463188171387
F-0.3373422920703888
tp531
a(F-0.6969601511955261
F-2.7877650260925293
F-0.3358432650566101
tp532
a(F-0.8782558441162109
F-3.512928009033203
F-0.3379899561405182
tp533
a(F-1.1750305891036987
F-4.699995040893555
F-0.33868682384490967
tp534
a(F-1.766161322593689
F-7.064453601837158
F-0.33900558948516846
tp535
a(F-1.9098775386810303
F-7.639302730560303
F-0.1830839067697525
tp536
a(F-1.9071491956710815
F-7.628389358520508
F0.0002244810020783916
tp537
a(F-1.9081742763519287
F-7.6324896812438965
F0.18337008357048035
tp538
a(F-1.9070055484771729
F-7.627815246582031
F0.36648979783058167
tp539
a(F-1.9070725440979004
F-7.628083229064941
F0.5501392483711243
tp540
a(F-1.9076412916183472
F-7.63035774230957
F0.7345939874649048
tp541
a(F-1.9058445692062378
F-7.623171806335449
F0.9188215732574463
tp542
a(F-1.9099904298782349
F-7.639754295349121
F1.1071536540985107
tp543
a(F-1.911413550376892
F-7.64544677734375
F1.29567551612854
tp544
a(F-1.9078434705734253
F-7.631166934967041
F1.4820412397384644
tp545
a(F-0.16278254985809326
F-0.8587204217910767
F-0.3413810431957245
tp546
a(F-0.17198866605758667
F-0.9072850346565247
F-0.33613458275794983
tp547
a(F-0.1863502860069275
F-0.983046293258667
F-0.3380465805530548
tp548
a(F-0.20224830508232117
F-1.0669125318527222
F-0.33894142508506775
tp549
a(F-0.21907208859920502
F-1.1556622982025146
F-0.3373032510280609
tp550
a(F-0.23853589594364166
F-1.2583390474319458
F-0.3352191746234894
tp551
a(F-0.2654748260974884
F-1.4004489183425903
F-0.337836891412735
tp552
a(F-0.2980002760887146
F-1.5720291137695312
F-0.34010449051856995
tp553
a(F-0.3349405527114868
F-1.7668986320495605
F-0.3387237787246704
tp554
a(F-0.38377052545547485
F-2.024489641189575
F-0.3386530578136444
tp555
a(F-0.44649234414100647
F-2.355363607406616
F-0.3369050920009613
tp556
a(F-0.5408904552459717
F-2.8533382415771484
F-0.33941787481307983
tp557
a(F-0.6777142882347107
F-3.575119733810425
F-0.33964571356773376
tp558
a(F-0.9013703465461731
F-4.754963397979736
F-0.33833667635917664
tp559
a(F-1.353694200515747
F-7.141089916229248
F-0.33837148547172546
tp560
a(F-1.4592742919921875
F-7.698052406311035
F-0.18217061460018158
tp561
a(F-1.4611730575561523
F-7.708068370819092
F0.00022397177235689014
tp562
a(F-1.4604905843734741
F-7.704468727111816
F0.18277041614055634
tp563
a(F-1.4608765840530396
F-7.706504821777344
F0.3656117916107178
tp564
a(F-1.460679054260254
F-7.705462455749512
F0.5487276911735535
tp565
a(F-1.4621697664260864
F-7.713326930999756
F0.7332383394241333
tp566
a(F-1.4628863334655762
F-7.717106819152832
F0.9184404611587524
tp567
a(F-1.4600950479507446
F-7.7023820877075195
F1.1021852493286133
tp568
a(F-1.4610424041748047
F-7.7073798179626465
F1.2897368669509888
tp569
a(F-1.461995005607605
F-7.712404727935791
F1.4789727926254272
tp570
a(F-0.11035330593585968
F-0.846076250076294
F-0.33326828479766846
tp571
a(F-0.12068896740674973
F-0.9253195524215698
F-0.33967065811157227
tp572
a(F-0.12892946600914001
F-0.9884992837905884
F-0.3368028402328491
tp573
a(F-0.13850997388362885
F-1.061952829360962
F-0.3342703878879547
tp574
a(F-0.15362972021102905
F-1.1778755187988281
F-0.34063228964805603
tp575
a(F-0.16811351478099823
F-1.2889225482940674
F-0.3402160704135895
tp576
a(F-0.1839827448129654
F-1.41059148311615
F-0.33716145157814026
tp577
a(F-0.20473414659500122
F-1.5696920156478882
F-0.336482971906662
tp578
a(F-0.2319175750017166
F-1.7781068086624146
F-0.3377448618412018
tp579
a(F-0.2672358751296997
F-2.048891305923462
F-0.33959025144577026
tp580
a(F-0.31229084730148315
F-2.39432692527771
F-0.33933597803115845
tp581
a(F-0.37459972500801086
F-2.8720474243164062
F-0.3385087847709656
tp582
a(F-0.4703226387500763
F-3.6059529781341553
F-0.3394317626953125
tp583
a(F-0.6264758110046387
F-4.803175926208496
F-0.33863139152526855
tp584
a(F-0.9405006170272827
F-7.21079683303833
F-0.3385395109653473
tp585
a(F-1.0147250890731812
F-7.779874324798584
F-0.18241766095161438
tp586
a(F-1.0142745971679688
F-7.776419639587402
F0.00022388463548850268
tp587
a(F-1.0157915353775024
F-7.788050174713135
F0.18305803835391998
tp588
a(F-1.0137344598770142
F-7.772279262542725
F0.36534905433654785
tp589
a(F-1.015267014503479
F-7.784029483795166
F0.5492366552352905
tp590
a(F-1.01526939868927
F-7.784046649932861
F0.7331717610359192
tp591
a(F-1.015027403831482
F-7.782192230224609
F0.9176884889602661
tp592
a(F-1.0135390758514404
F-7.770780563354492
F1.1017701625823975
tp593
a(F-1.0142362117767334
F-7.776126384735107
F1.2893016338348389
tp594
a(F-1.0147020816802979
F-7.779697418212891
F1.4781887531280518
tp595
a(F-0.06267336010932922
F-0.8683112859725952
F-0.3400363028049469
tp596
a(F-0.06692621111869812
F-0.9272326827049255
F-0.3383922278881073
tp597
a(F-0.07308661937713623
F-1.0125824213027954
F-0.34300076961517334
tp598
a(F-0.07798383384943008
F-1.0804311037063599
F-0.33810773491859436
tp599
a(F-0.08501314371824265
F-1.177819013595581
F-0.33863380551338196
tp600
a(F-0.09325218945741653
F-1.2919672727584839
F-0.3390352725982666
tp601
a(F-0.10296636819839478
F-1.4265528917312622
F-0.33899232745170593
tp602
a(F-0.11441422998905182
F-1.5851579904556274
F-0.3378208875656128
tp603
a(F-0.12955860793590546
F-1.7949764728546143
F-0.33896511793136597
tp604
a(F-0.14852268993854523
F-2.05771541595459
F-0.33906808495521545
tp605
a(F-0.1740827113389969
F-2.4118380546569824
F-0.33982861042022705
tp606
a(F-0.20823046565055847
F-2.8849399089813232
F-0.33804959058761597
tp607
a(F-0.26064422726631165
F-3.6111090183258057
F-0.3379390239715576
tp608
a(F-0.3494909107685089
F-4.842040061950684
F-0.33938488364219666
tp609
a(F-0.5242236256599426
F-7.262883186340332
F-0.3390006422996521
tp610
a(F-0.5669893026351929
F-7.855382442474365
F-0.18311628699302673
tp611
a(F-0.5668311715126038
F-7.85319185256958
F0.0002247791999252513
tp612
a(F-0.5672399997711182
F-7.858856678009033
F0.18364739418029785
tp613
a(F-0.5666138529777527
F-7.8501811027526855
F0.36686357855796814
tp614
a(F-0.5670567154884338
F-7.856317043304443
F0.5511114001274109
tp615
a(F-0.5666818022727966
F-7.851122856140137
F0.7351862788200378
tp616
a(F-0.5675845742225647
F-7.8636298179626465
F0.9218956232070923
tp617
a(F-0.5670592188835144
F-7.856351852416992
F1.1074206829071045
tp618
a(F-0.5675343871116638
F-7.8629350662231445
F1.2961081266403198
tp619
a(F-0.5669690370559692
F-7.855101585388184
F1.4838306903839111
tp620
a(F-0.012545779347419739
F-0.8705917596817017
F-0.34008002281188965
tp621
a(F-0.013534408994019032
F-0.9391959309577942
F-0.34190434217453003
tp622
a(F-0.014507968910038471
F-1.0067543983459473
F-0.340177059173584
tp623
a(F-0.015697794035077095
F-1.089320182800293
F-0.3400402367115021
tp624
a(F-0.016999855637550354
F-1.1796743869781494
F-0.33832231163978577
tp625
a(F-0.018651258200407028
F-1.294270396232605
F-0.33879354596138
tp626
a(F-0.02056916244328022
F-1.4273600578308105
F-0.3383391499519348
tp627
a(F-0.02287493273615837
F-1.5873647928237915
F-0.33744847774505615
tp628
a(F-0.025794614106416702
F-1.789970874786377
F-0.3371777832508087
tp629
a(F-0.0295589379966259
F-2.051189422607422
F-0.3371507525444031
tp630
a(F-0.03467516601085663
F-2.4062209129333496
F-0.33819255232810974
tp631
a(F-0.04180155321955681
F-2.9007434844970703
F-0.339054673910141
tp632
a(F-0.05230541527271271
F-3.6296401023864746
F-0.3388270437717438
tp633
a(F-0.06981012225151062
F-4.844347953796387
F-0.3387007415294647
tp634
a(F-0.10470426082611084
F-7.265763282775879
F-0.3382902145385742
tp635
a(F-0.11433176696300507
F-7.933847427368164
F-0.18448464572429657
tp636
a(F-0.11425425112247467
F-7.928467750549316
F0.00022636847279500216
tp637
a(F-0.11408807337284088
F-7.916936874389648
F0.18454374372959137
tp638
a(F-0.11446826159954071
F-7.943319320678711
F0.37029144167900085
tp639
a(F-0.1143331453204155
F-7.933942794799805
F0.5551702380180359
tp640
a(F-0.11414024233818054
F-7.920556545257568
F0.7398404479026794
tp641
a(F-0.11415836215019226
F-7.92181396484375
F0.9264032244682312
tp642
a(F-0.11398296058177948
F-7.909642219543457
F1.1121549606323242
tp643
a(F-0.11426842212677002
F-7.9294514656066895
F1.3038164377212524
tp644
a(F-0.11397318542003632
F-7.908963680267334
F1.4902833700180054
tp645
a(F0.03730121999979019
F-0.8622331619262695
F-0.3370949327945709
tp646
a(F0.04077126830816269
F-0.9424447417259216
F-0.34337225556373596
tp647
a(F0.04349290207028389
F-1.0053565502166748
F-0.3399871587753296
tp648
a(F0.046783141791820526
F-1.0814117193222046
F-0.33785223960876465
tp649
a(F0.05112837627530098
F-1.1818536520004272
F-0.33922910690307617
tp650
a(F0.0564899817109108
F-1.3057893514633179
F-0.34209296107292175
tp651
a(F0.06233982741832733
F-1.4410109519958496
F-0.34185895323753357
tp652
a(F0.06793852895498276
F-1.5704272985458374
F-0.3341253995895386
tp653
a(F0.07789450138807297
F-1.8005636930465698
F-0.33945515751838684
tp654
a(F0.08924099057912827
F-2.062842607498169
F-0.33934807777404785
tp655
a(F0.10433927923440933
F-2.4118459224700928
F-0.33926495909690857
tp656
a(F0.1254856288433075
F-2.9006524085998535
F-0.3393259346485138
tp657
a(F0.15647569298744202
F-3.6170005798339844
F-0.33792784810066223
tp658
a(F0.20893777906894684
F-4.829683780670166
F-0.3379562199115753
tp659
a(F0.3137984573841095
F-7.2535810470581055
F-0.33800381422042847
tp660
a(F0.34628015756607056
F-8.004409790039062
F-0.18628017604351044
tp661
a(F0.3465295433998108
F-8.010174751281738
F0.00022889145475346595
tp662
a(F0.3462156057357788
F-8.002917289733887
F0.18670305609703064
tp663
a(F0.34629735350608826
F-8.004806518554688
F0.3734680414199829
tp664
a(F0.3459673821926117
F-7.9971795082092285
F0.560060441493988
tp665
a(F0.34594234824180603
F-7.996601104736328
F0.7475646138191223
tp666
a(F0.3464021682739258
F-8.007229804992676
F0.9371705651283264
tp667
a(F0.3459513485431671
F-7.996809482574463
F1.125346064567566
tp668
a(F0.3461635708808899
F-8.001714706420898
F1.3167922496795654
tp669
a(F0.34632569551467896
F-8.005462646484375
F1.509720802307129
tp670
a(F0.08821841329336166
F-0.871536910533905
F-0.3421533405780792
tp671
a(F0.09473392367362976
F-0.9359056353569031
F-0.34241193532943726
tp672
a(F0.10083486884832382
F-0.9961787462234497
F-0.33828848600387573
tp673
a(F0.10835006833076477
F-1.0704237222671509
F-0.33581411838531494
tp674
a(F0.12016066908836365
F-1.187104344367981
F-0.3421573042869568
tp675
a(F0.13111017644405365
F-1.2952779531478882
F-0.3407544195652008
tp676
a(F0.14360949397087097
F-1.418762445449829
F-0.337984561920166
tp677
a(F0.16078989207744598
F-1.5884929895401
F-0.33937859535217285
tp678
a(F0.17997696995735168
F-1.778048038482666
F-0.3366083800792694
tp679
a(F0.20770429074764252
F-2.0519747734069824
F-0.33896809816360474
tp680
a(F0.24225158989429474
F-2.393278121948242
F-0.33805719017982483
tp681
a(F0.2923024594783783
F-2.8877460956573486
F-0.33922499418258667
tp682
a(F0.3655247986316681
F-3.6111321449279785
F-0.33878666162490845
tp683
a(F0.4870483875274658
F-4.81170129776001
F-0.3381021320819855
tp684
a(F0.7309437990188599
F-7.221219539642334
F-0.33789920806884766
tp685
a(F0.8168215751647949
F-8.069632530212402
F-0.18858127295970917
tp686
a(F0.8164075016975403
F-8.06554126739502
F0.000231434780289419
tp687
a(F0.8173081874847412
F-8.07443904876709
F0.18915724754333496
tp688
a(F0.8187241554260254
F-8.088428497314453
F0.3789432942867279
tp689
a(F0.8174617886543274
F-8.075957298278809
F0.5679362416267395
tp690
a(F0.8189625144004822
F-8.09078311920166
F0.7595238089561462
tp691
a(F0.818138599395752
F-8.082643508911133
F0.949942409992218
tp692
a(F0.8183299899101257
F-8.084534645080566
F1.1424360275268555
tp693
a(F0.8190802931785583
F-8.091946601867676
F1.3371950387954712
tp694
a(F0.818480908870697
F-8.08602523803711
F1.5312737226486206
tp695
a(F0.13659392297267914
F-0.8544423580169678
F-0.33797454833984375
tp696
a(F0.1461392045021057
F-0.9141513109207153
F-0.33697769045829773
tp697
a(F0.15695692598819733
F-0.9818199276924133
F-0.33592936396598816
tp698
a(F0.17147615551948547
F-1.0726428031921387
F-0.33905062079429626
tp699
a(F0.18600817024707794
F-1.1635456085205078
F-0.33789870142936707
tp700
a(F0.20525594055652618
F-1.2839469909667969
F-0.34032344818115234
tp701
a(F0.22672931849956512
F-1.418270468711853
F-0.34041792154312134
tp702
a(F0.2525167465209961
F-1.5795797109603882
F-0.34002190828323364
tp703
a(F0.28231579065322876
F-1.7659831047058105
F-0.3368481695652008
tp704
a(F0.3285243511199951
F-2.0550336837768555
F-0.34203609824180603
tp705
a(F0.38010072708129883
F-2.37766170501709
F-0.3383867144584656
tp706
a(F0.4603537917137146
F-2.8796722888946533
F-0.3408302664756775
tp707
a(F0.5704836845397949
F-3.568572998046875
F-0.3373212516307831
tp708
a(F0.7635817527770996
F-4.776468276977539
F-0.33816012740135193
tp709
a(F1.1456772089004517
F-7.166607856750488
F-0.3378753364086151
tp710
a(F1.3035979270935059
F-8.15445613861084
F-0.19200213253498077
tp711
a(F1.3052935600280762
F-8.16506290435791
F0.00023605916067026556
tp712
a(F1.3038877248764038
F-8.156269073486328
F0.19251668453216553
tp713
a(F1.3050559759140015
F-8.16357707977295
F0.3853512704372406
tp714
a(F1.3036160469055176
F-8.154569625854492
F0.5777937173843384
tp715
a(F1.3028968572616577
F-8.150071144104004
F0.7708651423454285
tp716
a(F1.3051327466964722
F-8.164057731628418
F0.9667543768882751
tp717
a(F1.3049596548080444
F-8.16297435760498
F1.1622285842895508
tp718
a(F1.301701545715332
F-8.142594337463379
F1.3557223081588745
tp719
a(F1.3051501512527466
F-8.164166450500488
F1.557742953300476
tp720
a(F0.18436755239963531
F-0.8395726680755615
F-0.33574268221855164
tp721
a(F0.1982642114162445
F-0.9028552770614624
F-0.33647143840789795
tp722
a(F0.21380554139614105
F-0.9736273288726807
F-0.33678749203681946
tp723
a(F0.22935877740383148
F-1.0444536209106445
F-0.333768755197525
tp724
a(F0.2503635287284851
F-1.1401050090789795
F-0.334730327129364
tp725
a(F0.27685344219207764
F-1.2607347965240479
F-0.33784347772598267
tp726
a(F0.3070186674594879
F-1.3981010913848877
F-0.33926498889923096
tp727
a(F0.3402702808380127
F-1.5495222806930542
F-0.33721762895584106
tp728
a(F0.3844122588634491
F-1.7505359649658203
F-0.3375714421272278
tp729
a(F0.44211646914482117
F-2.0133092403411865
F-0.3387743830680847
tp730
a(F0.5164290070533752
F-2.3517136573791504
F-0.33837220072746277
tp731
a(F0.6221451163291931
F-2.8331234455108643
F-0.3390061855316162
tp732
a(F0.7784067392349243
F-3.5447072982788086
F-0.33874785900115967
tp733
a(F1.0351969003677368
F-4.714077949523926
F-0.3374110460281372
tp734
a(F1.5568243265151978
F-7.08946418762207
F-0.33791178464889526
tp735
a(F1.8105418682098389
F-8.244842529296875
F-0.19626392424106598
tp736
a(F1.8065314292907715
F-8.226579666137695
F0.00024045162717811763
tp737
a(F1.8081474304199219
F-8.233939170837402
F0.1964859515428543
tp738
a(F1.811636209487915
F-8.249826431274414
F0.39370250701904297
tp739
a(F1.8054137229919434
F-8.221489906311035
F0.5889377593994141
tp740
a(F1.8107986450195312
F-8.246011734008789
F0.7885115146636963
tp741
a(F1.8060718774795532
F-8.2244873046875
F0.9846139550209045
tp742
a(F1.8123408555984497
F-8.253034591674805
F1.1879655122756958
tp743
a(F1.809775710105896
F-8.241353988647461
F1.3872462511062622
tp744
a(F1.8072088956832886
F-8.22966480255127
F1.5874978303909302
tp745
a(F0.23556111752986908
F-0.8387019634246826
F-0.3402644693851471
tp746
a(F0.2530393600463867
F-0.900932252407074
F-0.34063002467155457
tp747
a(F0.27404671907424927
F-0.9757277965545654
F-0.34241482615470886
tp748
a(F0.2928065359592438
F-1.0425209999084473
F-0.33798855543136597
tp749
a(F0.3169102370738983
F-1.1283409595489502
F-0.336086630821228
tp750
a(F0.34927308559417725
F-1.2435669898986816
F-0.3380817174911499
tp751
a(F0.3882771134376526
F-1.3824385404586792
F-0.34033527970314026
tp752
a(F0.4290072023868561
F-1.5274556875228882
F-0.337242066860199
tp753
a(F0.48448991775512695
F-1.7249988317489624
F-0.3374769985675812
tp754
a(F0.5547264814376831
F-1.9750721454620361
F-0.3371659517288208
tp755
a(F0.6538103222846985
F-2.327854633331299
F-0.33980268239974976
tp756
a(F0.7823137044906616
F-2.785383462905884
F-0.33813318610191345
tp757
a(F0.9808733463287354
F-3.4923439025878906
F-0.33858978748321533
tp758
a(F1.310384750366211
F-4.665550231933594
F-0.3387865126132965
tp759
a(F1.9632867574691772
F-6.990170955657959
F-0.3380168676376343
tp760
a(F2.335648536682129
F-8.315943717956543
F-0.20083081722259521
tp761
a(F2.3389408588409424
F-8.327666282653809
F0.0002469405299052596
tp762
a(F2.3398008346557617
F-8.330727577209473
F0.2016821652650833
tp763
a(F2.3338773250579834
F-8.309638023376465
F0.4023149311542511
tp764
a(F2.3342103958129883
F-8.310823440551758
F0.6039813756942749
tp765
a(F2.33917236328125
F-8.328490257263184
F0.80796217918396
tp766
a(F2.3366539478302
F-8.319522857666016
F1.0104533433914185
tp767
a(F2.3318417072296143
F-8.302390098571777
F1.212422490119934
tp768
a(F2.335951805114746
F-8.317024230957031
F1.420311689376831
tp769
a(F2.3414180278778076
F-8.336485862731934
F1.631453514099121
tp770
a(F0.2798044681549072
F-0.8130312561988831
F-0.3358418941497803
tp771
a(F0.3037962019443512
F-0.8827444314956665
F-0.33981648087501526
tp772
a(F0.32793039083480835
F-0.9528713822364807
F-0.3404684066772461
tp773
a(F0.3537766635417938
F-1.0279731750488281
F-0.3393263816833496
tp774
a(F0.3804255425930023
F-1.1054072380065918
F-0.33523693680763245
tp775
a(F0.4217051863670349
F-1.2253539562225342
F-0.33918195962905884
tp776
a(F0.46591126918792725
F-1.353804111480713
F-0.3393404483795166
tp777
a(F0.5174154043197632
F-1.50346040725708
F-0.3379743695259094
tp778
a(F0.585407018661499
F-1.7010244131088257
F-0.33883213996887207
tp779
a(F0.6711428761482239
F-1.950148105621338
F-0.33895888924598694
tp780
a(F0.7810137271881104
F-2.2694013118743896
F-0.3372880220413208
tp781
a(F0.9399785995483398
F-2.7313072681427
F-0.33759191632270813
tp782
a(F1.179797649383545
F-3.4281527996063232
F-0.33840417861938477
tp783
a(F1.5701135396957397
F-4.56229829788208
F-0.3373071849346161
tp784
a(F2.3634026050567627
F-6.867367744445801
F-0.3381112217903137
tp785
a(F2.8991506099700928
F-8.424098014831543
F-0.20713850855827332
tp786
a(F2.8958938121795654
F-8.414634704589844
F0.00025405222550034523
tp787
a(F2.895313262939453
F-8.412947654724121
F0.20737262070178986
tp788
a(F2.892521619796753
F-8.40483570098877
F0.41431623697280884
tp789
a(F2.8916256427764893
F-8.40223217010498
F0.6217172145843506
tp790
a(F2.8955373764038086
F-8.413599014282227
F0.8310462832450867
tp791
a(F2.8978209495544434
F-8.420234680175781
F1.0412635803222656
tp792
a(F2.894223213195801
F-8.409780502319336
F1.2504149675369263
tp793
a(F2.891427516937256
F-8.401656150817871
F1.4608286619186401
tp794
a(F2.8991246223449707
F-8.424022674560547
F1.6785328388214111
tp795
a(F0.33136746287345886
F-0.8082131147384644
F-0.34118300676345825
tp796
a(F0.3531046509742737
F-0.8612306118011475
F-0.3388151228427887
tp797
a(F0.377185195684433
F-0.9199636578559875
F-0.33592867851257324
tp798
a(F0.4114401042461395
F-1.0035121440887451
F-0.33852624893188477
tp799
a(F0.44765689969062805
F-1.0918457508087158
F-0.3383956253528595
tp800
a(F0.48519086837768555
F-1.18339204788208
F-0.3347600996494293
tp801
a(F0.543521523475647
F-1.3256617784500122
F-0.3395833671092987
tp802
a(F0.6021531820297241
F-1.4686659574508667
F-0.3374027907848358
tp803
a(F0.6857912540435791
F-1.6726611852645874
F-0.34049904346466064
tp804
a(F0.776547908782959
F-1.8940186500549316
F-0.33643221855163574
tp805
a(F0.9140693545341492
F-2.2294366359710693
F-0.3386247158050537
tp806
a(F1.0990771055221558
F-2.6806750297546387
F-0.33860981464385986
tp807
a(F1.3673100471496582
F-3.3349013328552246
F-0.3364282250404358
tp808
a(F1.8354601860046387
F-4.476730823516846
F-0.33824917674064636
tp809
a(F2.7569334506988525
F-6.724225997924805
F-0.3383338451385498
tp810
a(F3.485424041748047
F-8.501031875610352
F-0.21362051367759705
tp811
a(F3.4912781715393066
F-8.515310287475586
F0.00026273750700056553
tp812
a(F3.4854788780212402
F-8.501165390014648
F0.21414877474308014
tp813
a(F3.487262487411499
F-8.505515098571777
F0.42848658561706543
tp814
a(F3.4847588539123535
F-8.499409675598145
F0.6427185535430908
tp815
a(F3.4831011295318604
F-8.495366096496582
F0.8575499057769775
tp816
a(F3.489837408065796
F-8.511795997619629
F1.0757009983062744
tp817
a(F3.4889771938323975
F-8.509697914123535
F1.293056607246399
tp818
a(F3.487738609313965
F-8.50667667388916
F1.5115697383880615
tp819
a(F3.48862886428833
F-8.508848190307617
F1.7326666116714478
tp820
a(F0.36690792441368103
F-0.7659199237823486
F-0.33171552419662476
tp821
a(F0.4032314717769623
F-0.8417453169822693
F-0.339738667011261
tp822
a(F0.4357590973377228
F-0.9096466898918152
F-0.34077689051628113
tp823
a(F0.4717490077018738
F-0.9847755432128906
F-0.3408222496509552
tp824
a(F0.5034799575805664
F-1.0510139465332031
F-0.3341895341873169
tp825
a(F0.5561166405677795
F-1.1608929634094238
F-0.3369132876396179
tp826
a(F0.6103087663650513
F-1.2740190029144287
F-0.33481931686401367
tp827
a(F0.6830741763114929
F-1.4259166717529297
F-0.3360784947872162
tp828
a(F0.7800366878509521
F-1.6283259391784668
F-0.3400714695453644
tp829
a(F0.8884152770042419
F-1.8545660972595215
F-0.33796876668930054
tp830
a(F1.0444239377975464
F-2.180233955383301
F-0.33974069356918335
tp831
a(F1.2499148845672607
F-2.609196186065674
F-0.338129460811615
tp832
a(F1.5660370588302612
F-3.2691009044647217
F-0.33834415674209595
tp833
a(F2.0926599502563477
F-4.3684258460998535
F-0.33862707018852234
tp834
a(F3.1401891708374023
F-6.555141925811768
F-0.33838117122650146
tp835
a(F4.128457069396973
F-8.618149757385254
F-0.22218069434165955
tp836
a(F4.127134799957275
F-8.615389823913574
F0.0002727203245740384
tp837
a(F4.127020359039307
F-8.615151405334473
F0.22264909744262695
tp838
a(F4.123726844787598
F-8.6082763671875
F0.4449115991592407
tp839
a(F4.128249645233154
F-8.617717742919922
F0.6685675382614136
tp840
a(F4.117136478424072
F-8.594518661499023
F0.89006108045578
tp841
a(F4.130916595458984
F-8.623285293579102
F1.1180572509765625
tp842
a(F4.124297142028809
F-8.609466552734375
F1.3421484231948853
tp843
a(F4.128816604614258
F-8.618901252746582
F1.5712347030639648
tp844
a(F4.124104976654053
F-8.609065055847168
F1.7985442876815796
tp845
a(F0.42070573568344116
F-0.762134313583374
F-0.3400249779224396
tp846
a(F0.447812557220459
F-0.811240017414093
F-0.33729544281959534
tp847
a(F0.4911847412586212
F-0.8898113965988159
F-0.34339359402656555
tp848
a(F0.5262015461921692
F-0.953246533870697
F-0.33985427021980286
tp849
a(F0.564447283744812
F-1.0225310325622559
F-0.3349328339099884
tp850
a(F0.6251093745231628
F-1.1324241161346436
F-0.3385571241378784
tp851
a(F0.6887858510017395
F-1.2477779388427734
F-0.3378071188926697
tp852
a(F0.7677059173583984
F-1.3907465934753418
F-0.3376691937446594
tp853
a(F0.860796332359314
F-1.5593855381011963
F-0.3354897201061249
tp854
a(F0.9959313273429871
F-1.804190993309021
F-0.33869874477386475
tp855
a(F1.1678820848464966
F-2.1156904697418213
F-0.33962011337280273
tp856
a(F1.398168921470642
F-2.5328691005706787
F-0.33813172578811646
tp857
a(F1.7418121099472046
F-3.155399799346924
F-0.33641985058784485
tp858
a(F2.3344149589538574
F-4.228936195373535
F-0.33769506216049194
tp859
a(F3.5148067474365234
F-6.367288589477539
F-0.3385910391807556
tp860
a(F4.8178486824035645
F-8.727829933166504
F-0.23179036378860474
tp861
a(F4.817404747009277
F-8.727025032043457
F0.00028458083397708833
tp862
a(F4.821141719818115
F-8.733795166015625
F0.23251871764659882
tp863
a(F4.823498249053955
F-8.738064765930176
F0.4652320444583893
tp864
a(F4.807929515838623
F-8.709860801696777
F0.6960830688476562
tp865
a(F4.822362899780273
F-8.736006736755371
F0.9319831728935242
tp866
a(F4.819072723388672
F-8.730047225952148
F1.166016697883606
tp867
a(F4.811939239501953
F-8.717123985290527
F1.3998916149139404
tp868
a(F4.811652660369873
F-8.716605186462402
F1.6369425058364868
tp869
a(F4.822015762329102
F-8.73537826538086
F1.8799389600753784
tp870
a(F0.4556388556957245
F-0.7234894633293152
F-0.33395901322364807
tp871
a(F0.4930471181869507
F-0.7828884124755859
F-0.3367771804332733
tp872
a(F0.538781464099884
F-0.8555080890655518
F-0.3415859639644623
tp873
a(F0.575285017490387
F-0.9134705662727356
F-0.3369486331939697
tp874
a(F0.6320105791091919
F-1.0035425424575806
F-0.3400937616825104
tp875
a(F0.6867580413818359
F-1.0904737710952759
F-0.3373025953769684
tp876
a(F0.7539724111557007
F-1.1972005367279053
F-0.3353358805179596
tp877
a(F0.8465864062309265
F-1.344258427619934
F-0.33768194913864136
tp878
a(F0.9595702290534973
F-1.5236605405807495
F-0.3391529321670532
tp879
a(F1.0947070121765137
F-1.7382384538650513
F-0.3376152813434601
tp880
a(F1.2862625122070312
F-2.0424013137817383
F-0.33920636773109436
tp881
a(F1.5380772352218628
F-2.442247152328491
F-0.33732178807258606
tp882
a(F1.9301952123641968
F-3.0648746490478516
F-0.33808162808418274
tp883
a(F2.580173969268799
F-4.096948146820068
F-0.3384820818901062
tp884
a(F3.8807456493377686
F-6.162070274353027
F-0.33902305364608765
tp885
a(F5.567620277404785
F-8.84058666229248
F-0.242913618683815
tp886
a(F5.572947025299072
F-8.849043846130371
F0.00029855023603886366
tp887
a(F5.580812454223633
F-8.861533164978027
F0.24408744275569916
tp888
a(F5.569887638092041
F-8.844185829162598
F0.4871850311756134
tp889
a(F5.577394485473633
F-8.856106758117676
F0.7322752475738525
tp890
a(F5.574636459350586
F-8.851726531982422
F0.9770229458808899
tp891
a(F5.570479869842529
F-8.84512710571289
F1.222288966178894
tp892
a(F5.570945739746094
F-8.845867156982422
F1.4697492122650146
tp893
a(F5.583946228027344
F-8.866509437561035
F1.7227425575256348
tp894
a(F5.571251392364502
F-8.846351623535156
F1.9697353839874268
tp895
a(F0.49612563848495483
F-0.6954235434532166
F-0.3336643874645233
tp896
a(F0.5359246730804443
F-0.7512102127075195
F-0.3358951807022095
tp897
a(F0.5804151892662048
F-0.813572883605957
F-0.3376539945602417
tp898
a(F0.6348291039466858
F-0.8898454308509827
F-0.341179758310318
tp899
a(F0.6813983917236328
F-0.9551219940185547
F-0.3364505469799042
tp900
a(F0.7497647404670715
F-1.050951600074768
F-0.3378988802433014
tp901
a(F0.8259827494621277
F-1.1577869653701782
F-0.3370864987373352
tp902
a(F0.925552487373352
F-1.297354817390442
F-0.33875319361686707
tp903
a(F1.042418122291565
F-1.4611663818359375
F-0.33806994557380676
tp904
a(F1.2028682231903076
F-1.6860706806182861
F-0.3403988480567932
tp905
a(F1.3913323879241943
F-1.9502424001693726
F-0.33667516708374023
tp906
a(F1.6875057220458984
F-2.3653910160064697
F-0.3395918905735016
tp907
a(F2.1063921451568604
F-2.952547788619995
F-0.3385363817214966
tp908
a(F2.8139214515686035
F-3.9442977905273438
F-0.338722825050354
tp909
a(F4.2175116539001465
F-5.911721706390381
F-0.3380773961544037
tp910
a(F6.415813446044922
F-8.9931001663208
F-0.25685012340545654
tp911
a(F6.419172286987305
F-8.997808456420898
F0.0003155421291012317
tp912
a(F6.414820671081543
F-8.991708755493164
F0.25744134187698364
tp913
a(F6.415710926055908
F-8.99295711517334
F0.5149180293083191
tp914
a(F6.41196870803833
F-8.987710952758789
F0.7724673748016357
tp915
a(F6.416713237762451
F-8.994361877441406
F1.0319215059280396
tp916
a(F6.415972709655762
F-8.993324279785156
F1.291783094406128
tp917
a(F6.405970096588135
F-8.979303359985352
F1.5507614612579346
tp918
a(F6.413038730621338
F-8.989211082458496
F1.8154687881469727
tp919
a(F6.414287090301514
F-8.990960121154785
F2.0808908939361572
tp920
a(F0.5549001693725586
F-0.6899745464324951
F-0.3458387851715088
tp921
a(F0.5802252292633057
F-0.7214642763137817
F-0.33700573444366455
tp922
a(F0.617445170879364
F-0.7677443623542786
F-0.3328680992126465
tp923
a(F0.6830682158470154
F-0.8493413925170898
F-0.34019753336906433
tp924
a(F0.7451515793800354
F-0.9265371561050415
F-0.3409615457057953
tp925
a(F0.8166245818138123
F-1.0154081583023071
F-0.34105533361434937
tp926
a(F0.8839042782783508
F-1.0990651845932007
F-0.3342845141887665
tp927
a(F0.9964892268180847
F-1.2390557527542114
F-0.3379835784435272
tp928
a(F1.1203725337982178
F-1.393094778060913
F-0.3367190957069397
tp929
a(F1.2854399681091309
F-1.5983431339263916
F-0.33710289001464844
tp930
a(F1.5146807432174683
F-1.8833858966827393
F-0.33965808153152466
tp931
a(F1.819835901260376
F-2.262822151184082
F-0.3393789529800415
tp932
a(F2.272578477859497
F-2.8257718086242676
F-0.3384742736816406
tp933
a(F3.036156177520752
F-3.7752203941345215
F-0.3386859893798828
tp934
a(F4.55702018737793
F-5.666295051574707
F-0.3385177552700043
tp935
a(F7.351175308227539
F-9.140605926513672
F-0.27272531390190125
tp936
a(F7.336810111999512
F-9.1227445602417
F0.0003342152340337634
tp937
a(F7.355289936065674
F-9.145722389221191
F0.2735484540462494
tp938
a(F7.348984718322754
F-9.137882232666016
F0.5465894937515259
tp939
a(F7.348356246948242
F-9.137101173400879
F0.8203886151313782
tp940
a(F7.345824241638184
F-9.133952140808105
F1.0947506427764893
tp941
a(F7.34364128112793
F-9.131237983703613
F1.3701848983764648
tp942
a(F7.346892356872559
F-9.13528060913086
F1.6481791734695435
tp943
a(F7.342848300933838
F-9.13025188446045
F1.9263275861740112
tp944
a(F7.350380897521973
F-9.139617919921875
F2.209792137145996
tp945
a(F0.5793298482894897
F-0.6409291625022888
F-0.337451308965683
tp946
a(F0.6220857501029968
F-0.6882312297821045
F-0.3376893103122711
tp947
a(F0.6755695343017578
F-0.7474018335342407
F-0.340384840965271
tp948
a(F0.7203038930892944
F-0.7968927621841431
F-0.33528122305870056
tp949
a(F0.7955489754676819
F-0.8801385760307312
F-0.3402155041694641
tp950
a(F0.8621612787246704
F-0.9538336396217346
F-0.33652496337890625
tp951
a(F0.9561270475387573
F-1.0577906370162964
F-0.3379504382610321
tp952
a(F1.076860785484314
F-1.1913617849349976
F-0.3413570821285248
tp953
a(F1.207737684249878
F-1.3361546993255615
F-0.3392378091812134
tp954
a(F1.3813598155975342
F-1.5282379388809204
F-0.3385664224624634
tp955
a(F1.620519757270813
F-1.7928272485733032
F-0.3396264910697937
tp956
a(F1.94976007938385
F-2.1570751667022705
F-0.33982884883880615
tp957
a(F2.435774326324463
F-2.6947667598724365
F-0.33905503153800964
tp958
a(F3.2511532306671143
F-3.5968434810638428
F-0.3389510214328766
tp959
a(F4.868137359619141
F-5.385759353637695
F-0.3379789888858795
tp960
a(F8.415570259094238
F-9.310385704040527
F-0.2917954921722412
tp961
a(F8.417195320129395
F-9.31218433380127
F0.00035835441667586565
tp962
a(F8.421808242797852
F-9.31728744506836
F0.29272931814193726
tp963
a(F8.421126365661621
F-9.316532135009766
F0.5853700637817383
tp964
a(F8.417147636413574
F-9.31213092803955
F0.8782551884651184
tp965
a(F8.41651725769043
F-9.311432838439941
F1.1722856760025024
tp966
a(F8.419090270996094
F-9.31428050994873
F1.4681122303009033
tp967
a(F8.417977333068848
F-9.31304931640625
F1.7649601697921753
tp968
a(F8.417485237121582
F-9.312504768371582
F2.0638320446014404
tp969
a(F8.41468620300293
F-9.309408187866211
F2.3643181324005127
tp970
a(F0.6128244996070862
F-0.6040552854537964
F-0.3360975980758667
tp971
a(F0.6600462198257446
F-0.650601327419281
F-0.3373537063598633
tp972
a(F0.7184411287307739
F-0.7081606388092041
F-0.34082815051078796
tp973
a(F0.769347608089447
F-0.7583386898040771
F-0.33717870712280273
tp974
a(F0.8501974940299988
F-0.8380316495895386
F-0.3423348069190979
tp975
a(F0.9339395761489868
F-0.9205754399299622
F-0.3432350754737854
tp976
a(F1.0172324180603027
F-1.0026763677597046
F-0.33853352069854736
tp977
a(F1.1369285583496094
F-1.1206598281860352
F-0.3393334448337555
tp978
a(F1.2790669202804565
F-1.260764241218567
F-0.3382743000984192
tp979
a(F1.4481240510940552
F-1.427402138710022
F-0.3341849446296692
tp980
a(F1.7203693389892578
F-1.6957519054412842
F-0.33947908878326416
tp981
a(F2.0597729682922363
F-2.0302987098693848
F-0.33802008628845215
tp982
a(F2.581186294555664
F-2.544250965118408
F-0.3382957875728607
tp983
a(F3.4456100463867188
F-3.3963053226470947
F-0.33822813630104065
tp984
a(F5.180979251861572
F-5.106842517852783
F-0.33867472410202026
tp985
a(F9.65859317779541
F-9.520384788513184
F-0.31532108783721924
tp986
a(F9.6530179977417
F-9.514888763427734
F0.000386947940569371
tp987
a(F9.650212287902832
F-9.512124061584473
F0.3158215880393982
tp988
a(F9.648877143859863
F-9.510807037353516
F0.631511390209198
tp989
a(F9.658700942993164
F-9.520489692687988
F0.9488959312438965
tp990
a(F9.646187782287598
F-9.508156776428223
F1.265030026435852
tp991
a(F9.65305233001709
F-9.514923095703125
F1.584903597831726
tp992
a(F9.64144515991211
F-9.5034818649292
F1.9033267498016357
tp993
a(F9.660881996154785
F-9.522640228271484
F2.2302463054656982
tp994
a(F9.65186882019043
F-9.513755798339844
F2.55342698097229
tp995
a(F0.6470494866371155
F-0.5681341886520386
F-0.3363274037837982
tp996
a(F0.7000491619110107
F-0.614669919013977
F-0.3391057252883911
tp997
a(F0.756696879863739
F-0.664408802986145
F-0.3402214050292969
tp998
a(F0.8151617646217346
F-0.7157431840896606
F-0.3385920524597168
tp999
a(F0.8810763359069824
F-0.7736186981201172
F-0.3362329304218292
tp1000
a(F0.9732799530029297
F-0.8545769453048706
F-0.3390049636363983
tp1001
a(F1.068913221359253
F-0.9385466575622559
F-0.337147057056427
tp1002
a(F1.1919922828674316
F-1.0466147661209106
F-0.3371804356575012
tp1003
a(F1.3412915468215942
F-1.1777052879333496
F-0.3361974060535431
tp1004
a(F1.5439436435699463
F-1.3556416034698486
F-0.3376820981502533
tp1005
a(F1.8032643795013428
F-1.5833349227905273
F-0.33724549412727356
tp1006
a(F2.172065019607544
F-1.9071561098098755
F-0.3378247320652008
tp1007
a(F2.7299020290374756
F-2.396958351135254
F-0.33909371495246887
tp1008
a(F3.636199474334717
F-3.1927220821380615
F-0.3382880985736847
tp1009
a(F5.478816509246826
F-4.810610294342041
F-0.3394322991371155
tp1010
a(F10.931370735168457
F-9.598161697387695
F-0.3382277190685272
tp1011
a(F11.111164093017578
F-9.756026268005371
F0.0004221282433718443
tp1012
a(F11.108014106750488
F-9.753260612487793
F0.3445377051830292
tp1013
a(F11.102272033691406
F-9.748218536376953
F0.6886708736419678
tp1014
a(F11.100067138671875
F-9.746282577514648
F1.0335248708724976
tp1015
a(F11.10029411315918
F-9.746481895446777
F1.379669427871704
tp1016
a(F11.10372257232666
F-9.749492645263672
F1.7278348207473755
tp1017
a(F11.10583782196045
F-9.751349449157715
F2.0778679847717285
tp1018
a(F11.109414100646973
F-9.75448989868164
F2.4306511878967285
tp1019
a(F11.10604190826416
F-9.7515287399292
F2.78462553024292
tp1020
a(F0.6769261360168457
F-0.5285230278968811
F-0.335445374250412
tp1021
a(F0.7260491847991943
F-0.5668768286705017
F-0.33529600501060486
tp1022
a(F0.8018015027046204
F-0.6260218620300293
F-0.34368637204170227
tp1023
a(F0.8578425645828247
F-0.669776976108551
F-0.3397006094455719
tp1024
a(F0.9263777136802673
F-0.7232871055603027
F-0.3370315134525299
tp1025
a(F1.0220012664794922
F-0.7979469895362854
F-0.33937156200408936
tp1026
a(F1.1238820552825928
F-0.8774924278259277
F-0.33795076608657837
tp1027
a(F1.2527695894241333
F-0.9781238436698914
F-0.33784374594688416
tp1028
a(F1.4206492900848389
F-1.109199047088623
F-0.3394796848297119
tp1029
a(F1.6256729364395142
F-1.269275188446045
F-0.3389733135700226
tp1030
a(F1.8897786140441895
F-1.4754807949066162
F-0.3369406759738922
tp1031
a(F2.2843172550201416
F-1.7835243940353394
F-0.3387121558189392
tp1032
a(F2.867003917694092
F-2.2384681701660156
F-0.33951324224472046
tp1033
a(F3.804342746734619
F-2.970313549041748
F-0.33742281794548035
tp1034
a(F5.73940896987915
F-4.48115348815918
F-0.3389918804168701
tp1035
a(F11.46790885925293
F-8.953788757324219
F-0.3382786214351654
tp1036
a(F12.856714248657227
F-10.038125991821289
F0.0004656618111766875
tp1037
a(F12.84078598022461
F-10.025689125061035
F0.3797062337398529
tp1038
a(F12.84892749786377
F-10.0320463180542
F0.7598406076431274
tp1039
a(F12.854372024536133
F-10.036296844482422
F1.1410428285598755
tp1040
a(F12.857621192932129
F-10.038833618164062
F1.5235508680343628
tp1041
a(F12.850324630737305
F-10.033136367797852
F1.9063537120819092
tp1042
a(F12.842755317687988
F-10.027226448059082
F2.2907652854919434
tp1043
a(F12.849091529846191
F-10.032174110412598
F2.6801536083221436
tp1044
a(F12.851289749145508
F-10.033890724182129
F3.071920394897461
tp1045
a(F0.7148497700691223
F-0.4945955276489258
F-0.33952948451042175
tp1046
a(F0.7661036849021912
F-0.530057430267334
F-0.3391033411026001
tp1047
a(F0.8258551359176636
F-0.5713987350463867
F-0.33929815888404846
tp1048
a(F0.8943045139312744
F-0.618757963180542
F-0.33943477272987366
tp1049
a(F0.9775910377502441
F-0.6763828992843628
F-0.34089595079421997
tp1050
a(F1.070527195930481
F-0.7406842708587646
F-0.34072497487068176
tp1051
a(F1.1736825704574585
F-0.8120561242103577
F-0.3382715880870819
tp1052
a(F1.311277985572815
F-0.9072566628456116
F-0.3389390707015991
tp1053
a(F1.486552119255066
F-1.0285265445709229
F-0.34047815203666687
tp1054
a(F1.6979225873947144
F-1.1747711896896362
F-0.33933791518211365
tp1055
a(F1.9812341928482056
F-1.3707908391952515
F-0.338579386472702
tp1056
a(F2.3799445629119873
F-1.6466535329818726
F-0.33823874592781067
tp1057
a(F2.9767069816589355
F-2.0595459938049316
F-0.33786770701408386
tp1058
a(F3.9895081520080566
F-2.7602901458740234
F-0.339153528213501
tp1059
a(F5.978738784790039
F-4.136613845825195
F-0.3384650945663452
tp1060
a(F11.973981857299805
F-8.284646034240723
F-0.3385408818721771
tp1061
a(F15.012810707092285
F-10.387173652648926
F0.0005211764946579933
tp1062
a(F15.0038480758667
F-10.380972862243652
F0.4252467155456543
tp1063
a(F15.004828453063965
F-10.381650924682617
F0.8504892587661743
tp1064
a(F15.005962371826172
F-10.38243579864502
F1.2767243385314941
tp1065
a(F15.016012191772461
F-10.389389038085938
F1.7054270505905151
tp1066
a(F15.018863677978516
F-10.391362190246582
F2.135544538497925
tp1067
a(F15.012864112854004
F-10.387210845947266
F2.5666587352752686
tp1068
a(F15.009597778320312
F-10.384950637817383
F3.000809907913208
tp1069
a(F14.992935180664062
F-10.373422622680664
F3.435042381286621
tp1070
a(F0.7521243691444397
F-0.4586685299873352
F-0.34408944845199585
tp1071
a(F0.799429178237915
F-0.4875164330005646
F-0.34083443880081177
tp1072
a(F0.8497791290283203
F-0.518221378326416
F-0.3362812399864197
tp1073
a(F0.9339908957481384
F-0.5695763230323792
F-0.34145426750183105
tp1074
a(F1.001428246498108
F-0.6107016801834106
F-0.33635929226875305
tp1075
a(F1.105823278427124
F-0.6743649840354919
F-0.33900877833366394
tp1076
a(F1.2089295387268066
F-0.7372422814369202
F-0.33560994267463684
tp1077
a(F1.363569736480713
F-0.8315466046333313
F-0.3394870162010193
tp1078
a(F1.5276647806167603
F-0.9316168427467346
F-0.3370203673839569
tp1079
a(F1.7617557048797607
F-1.07437264919281
F-0.3391401171684265
tp1080
a(F2.0560474395751953
F-1.2538408041000366
F-0.33843618631362915
tp1081
a(F2.473756790161133
F-1.5085728168487549
F-0.33863553404808044
tp1082
a(F3.093424081802368
F-1.8864649534225464
F-0.33819645643234253
tp1083
a(F4.142725944519043
F-2.5263614654541016
F-0.3392205536365509
tp1084
a(F6.204111576080322
F-3.7834577560424805
F-0.3383007049560547
tp1085
a(F12.418266296386719
F-7.573039531707764
F-0.33818352222442627
tp1086
a(F17.77250862121582
F-10.838221549987793
F0.0005942791467532516
tp1087
a(F17.764856338500977
F-10.833555221557617
F0.48497459292411804
tp1088
a(F17.763097763061523
F-10.832481384277344
F0.9697849750518799
tp1089
a(F17.763113021850586
F-10.832491874694824
F1.4556981325149536
tp1090
a(F17.75675392150879
F-10.82861328125
F1.9424999952316284
tp1091
a(F17.762643814086914
F-10.832205772399902
F2.432753801345825
tp1092
a(F17.759746551513672
F-10.830438613891602
F2.924558639526367
tp1093
a(F17.76177978515625
F-10.83167839050293
F3.420384407043457
tp1094
a(F17.752283096313477
F-10.825887680053711
F3.9175868034362793
tp1095
a(F0.7490528225898743
F-0.3995096981525421
F-0.33158522844314575
tp1096
a(F0.8241180181503296
F-0.43954595923423767
F-0.33998045325279236
tp1097
a(F0.8780748844146729
F-0.4683240056037903
F-0.33622437715530396
tp1098
a(F0.9584557414054871
F-0.5111953616142273
F-0.33904939889907837
tp1099
a(F1.0473694801330566
F-0.5586177706718445
F-0.34039607644081116
tp1100
a(F1.1509352922439575
F-0.6138549447059631
F-0.34141072630882263
tp1101
a(F1.2588160037994385
F-0.6713934540748596
F-0.33814045786857605
tp1102
a(F1.4023545980453491
F-0.7479502558708191
F-0.33783504366874695
tp1103
a(F1.5757745504379272
F-0.8404443264007568
F-0.3363746106624603
tp1104
a(F1.8235670328140259
F-0.9726052284240723
F-0.33966925740242004
tp1105
a(F2.128889560699463
F-1.1354498863220215
F-0.33907660841941833
tp1106
a(F2.5481913089752197
F-1.3590859174728394
F-0.3375270664691925
tp1107
a(F3.202470302581787
F-1.70804762840271
F-0.33877840638160706
tp1108
a(F4.2817583084106445
F-2.283689260482788
F-0.33924946188926697
tp1109
a(F6.41067361831665
F-3.4191529750823975
F-0.3382423520088196
tp1110
a(F12.845743179321289
F-6.851317405700684
F-0.3384946286678314
tp1111
a(F21.439435958862305
F-11.43479061126709
F0.0006936751888133585
tp1112
a(F21.42123031616211
F-11.425080299377441
F0.5658518075942993
tp1113
a(F21.430585861206055
F-11.430070877075195
F1.1321184635162354
tp1114
a(F21.418285369873047
F-11.42350959777832
F1.6983921527862549
tp1115
a(F21.40514373779297
F-11.41650104522705
F2.2657744884490967
tp1116
a(F21.41628646850586
F-11.422443389892578
F2.8381526470184326
tp1117
a(F21.422128677368164
F-11.425559997558594
F3.413400411605835
tp1118
a(F21.426830291748047
F-11.428067207336426
F3.9925224781036377
tp1119
a(F21.41946792602539
F-11.424139976501465
F4.57376766204834
tp1120
a(F0.7873623371124268
F-0.3633226752281189
F-0.33869898319244385
tp1121
a(F0.8386831879615784
F-0.3870043158531189
F-0.3362164795398712
tp1122
a(F0.904954731464386
F-0.4175848364830017
F-0.33672937750816345
tp1123
a(F0.9907495379447937
F-0.45717424154281616
F-0.34057387709617615
tp1124
a(F1.0660991668701172
F-0.4919437766075134
F-0.3366966247558594
tp1125
a(F1.176680326461792
F-0.542970597743988
F-0.3391886055469513
tp1126
a(F1.2872670888900757
F-0.5940001010894775
F-0.33601608872413635
tp1127
a(F1.4464290142059326
F-0.6674442291259766
F-0.33861055970191956
tp1128
a(F1.6196479797363281
F-0.7473748922348022
F-0.33597448468208313
tp1129
a(F1.8607189655303955
F-0.8586153388023376
F-0.33679983019828796
tp1130
a(F2.171616554260254
F-1.0020768642425537
F-0.33611229062080383
tp1131
a(F2.609579086303711
F-1.2041714191436768
F-0.33589500188827515
tp1132
a(F3.2905616760253906
F-1.5184059143066406
F-0.3382650911808014
tp1133
a(F4.395542621612549
F-2.0282914638519287
F-0.3384277820587158
tp1134
a(F6.590820789337158
F-3.0412867069244385
F-0.3379250466823578
tp1135
a(F13.198200225830078
F-6.090214252471924
F-0.33795881271362305
tp1136
a(F67.0633773803711
F-30.94590950012207
F0.002108554122969508
tp1137
a(F67.05158233642578
F-30.94046974182129
F1.721170425415039
tp1138
a(F67.05404663085938
F-30.941606521606445
F3.442225694656372
tp1139
a(F67.073486328125
F-30.950578689575195
F5.168454647064209
tp1140
a(F67.063232421875
F-30.945844650268555
F6.89825963973999
tp1141
a(F67.05390930175781
F-30.94154167175293
F8.6351957321167
tp1142
a(F67.05624389648438
F-30.94261932373047
F10.382940292358398
tp1143
a(F67.05603790283203
F-30.94252586364746
F12.141822814941406
tp1144
a(F67.06796264648438
F-30.948028564453125
F13.916726112365723
tp1145
a(F0.8125399947166443
F-0.3195418119430542
F-0.34102991223335266
tp1146
a(F0.8701829314231873
F-0.3422106206417084
F-0.34036123752593994
tp1147
a(F0.9256481528282166
F-0.36402302980422974
F-0.33605360984802246
tp1148
a(F1.0093283653259277
F-0.39693135023117065
F-0.33852317929267883
tp1149
a(F1.084640383720398
F-0.4265487790107727
F-0.33422228693962097
tp1150
a(F1.1986913681030273
F-0.47140079736709595
F-0.33713096380233765
tp1151
a(F1.3030979633331299
F-0.5124600529670715
F-0.33187684416770935
tp1152
a(F1.489101767539978
F-0.5856084227561951
F-0.3401232063770294
tp1153
a(F1.6680628061294556
F-0.6559872031211853
F-0.3376031816005707
tp1154
a(F1.9187408685684204
F-0.7545695304870605
F-0.3388565182685852
tp1155
a(F2.2383320331573486
F-0.8802528381347656
F-0.338013619184494
tp1156
a(F2.695406198501587
F-1.0600031614303589
F-0.3385055363178253
tp1157
a(F3.3676719665527344
F-1.3243802785873413
F-0.3377733826637268
tp1158
a(F4.500420570373535
F-1.7698482275009155
F-0.3380765914916992
tp1159
a(F6.766843318939209
F-2.6611483097076416
F-0.3385131061077118
tp1160
a(F13.545843124389648
F-5.327077388763428
F-0.3384259045124054
tp1161
a(F78.69068145751953
F-30.946121215820312
F0.0024139657616615295
tp1162
a(F78.69256591796875
F-30.946863174438477
F1.9708656072616577
tp1163
a(F78.69650268554688
F-30.94841194152832
F3.9416518211364746
tp1164
a(F78.68251037597656
F-30.94291114807129
F5.915568828582764
tp1165
a(F78.6916732788086
F-30.946514129638672
F7.897548675537109
tp1166
a(F78.66986083984375
F-30.937936782836914
F9.884734153747559
tp1167
a(F78.68925476074219
F-30.9455623626709
F11.887896537780762
tp1168
a(F78.68092346191406
F-30.942285537719727
F13.900291442871094
tp1169
a(F78.68397521972656
F-30.943485260009766
F15.930035591125488
tp1170
a(F0.8187034130096436
F-0.26862385869026184
F-0.33655062317848206
tp1171
a(F0.8738928437232971
F-0.2867319881916046
F-0.3347833454608917
tp1172
a(F0.9573773145675659
F-0.3141239881515503
F-0.3404253423213959
tp1173
a(F1.0277212858200073
F-0.3372044563293457
F-0.3376038372516632
tp1174
a(F1.122004747390747
F-0.36813971400260925
F-0.33862611651420593
tp1175
a(F1.2210004329681396
F-0.40062108635902405
F-0.3363436162471771
tp1176
a(F1.3541969060897827
F-0.4443240165710449
F-0.3377985656261444
tp1177
a(F1.5166428089141846
F-0.4976239800453186
F-0.33929017186164856
tp1178
a(F1.7080899477005005
F-0.5604394674301147
F-0.33859533071517944
tp1179
a(F1.9590699672698975
F-0.6427882313728333
F-0.33886411786079407
tp1180
a(F2.284712791442871
F-0.7496345043182373
F-0.33792275190353394
tp1181
a(F2.7653756141662598
F-0.9073442816734314
F-0.3401510417461395
tp1182
a(F3.44407320022583
F-1.1300309896469116
F-0.33833280205726624
tp1183
a(F4.58318567276001
F-1.503783941268921
F-0.3372139632701874
tp1184
a(F6.914381504058838
F-2.268669843673706
F-0.33878079056739807
tp1185
a(F13.82833194732666
F-4.537198066711426
F-0.33837902545928955
tp1186
a(F94.3208999633789
F-30.947525024414062
F0.0028339477721601725
tp1187
a(F94.30320739746094
F-30.94171714782715
F2.313267469406128
tp1188
a(F94.29825592041016
F-30.940093994140625
F4.625967502593994
tp1189
a(F94.33140563964844
F-30.950971603393555
F6.946254253387451
tp1190
a(F94.29988098144531
F-30.940628051757812
F9.269381523132324
tp1191
a(F94.3130874633789
F-30.94495964050293
F11.606589317321777
tp1192
a(F94.30774688720703
F-30.943208694458008
F13.954461097717285
tp1193
a(F94.30270385742188
F-30.941553115844727
F16.317541122436523
tp1194
a(F94.31784057617188
F-30.94651985168457
F18.702529907226562
tp1195
a(F0.8262024521827698
F-0.21925458312034607
F-0.3338766098022461
tp1196
a(F0.8921948075294495
F-0.23676738142967224
F-0.33600133657455444
tp1197
a(F0.9718366861343384
F-0.25790247321128845
F-0.3397095203399658
tp1198
a(F1.0322010517120361
F-0.2739217281341553
F-0.3333281874656677
tp1199
a(F1.1346540451049805
F-0.30111032724380493
F-0.3366393446922302
tp1200
a(F1.239992380142212
F-0.32906463742256165
F-0.3357855975627899
tp1201
a(F1.378114104270935
F-0.36571887135505676
F-0.3379378616809845
tp1202
a(F1.5460015535354614
F-0.4102722108364105
F-0.3399958312511444
tp1203
a(F1.725394368171692
F-0.45787885785102844
F-0.3362283408641815
tp1204
a(F1.9883097410202026
F-0.5276503562927246
F-0.3380923569202423
tp1205
a(F2.33219838142395
F-0.6189102530479431
F-0.33909934759140015
tp1206
a(F2.800715446472168
F-0.7432435750961304
F-0.33865877985954285
tp1207
a(F3.493213415145874
F-0.9270161390304565
F-0.33734366297721863
tp1208
a(F4.670269012451172
F-1.2393789291381836
F-0.3377969264984131
tp1209
a(F7.026822566986084
F-1.8647524118423462
F-0.33845436573028564
tp1210
a(F14.06909465789795
F-3.733604669570923
F-0.33843517303466797
tp1211
a(F116.59378814697266
F-30.941232681274414
F0.003443777095526457
tp1212
a(F116.60260772705078
F-30.943572998046875
F2.811793088912964
tp1213
a(F116.59504699707031
F-30.941566467285156
F5.622827053070068
tp1214
a(F116.58753967285156
F-30.939573287963867
F8.439606666564941
tp1215
a(F116.60285949707031
F-30.943639755249023
F11.26742172241211
tp1216
a(F116.58216857910156
F-30.938148498535156
F14.103940963745117
tp1217
a(F116.59019470214844
F-30.940277099609375
F16.959123611450195
tp1218
a(F0.8497610688209534
F-0.17380692064762115
F-0.338780015707016
tp1219
a(F0.9104241132736206
F-0.18621471524238586
F-0.3382568061351776
tp1220
a(F0.9773651957511902
F-0.199906587600708
F-0.3370487689971924
tp1221
a(F1.0671789646148682
F-0.2182767540216446
F-0.3399902284145355
tp1222
a(F1.1545511484146118
F-0.23614753782749176
F-0.33793726563453674
tp1223
a(F1.2602397203445435
F-0.25776466727256775
F-0.33668026328086853
tp1224
a(F1.3899269104003906
F-0.2842904031276703
F-0.3362521827220917
tp1225
a(F1.5498844385147095
F-0.31700751185417175
F-0.3362671434879303
tp1226
a(F1.7643706798553467
F-0.36087772250175476
F-0.33920106291770935
tp1227
a(F2.033442735671997
F-0.4159127175807953
F-0.34111806750297546
tp1228
a(F2.3651480674743652
F-0.48375847935676575
F-0.33926674723625183
tp1229
a(F2.8439111709594727
F-0.5816828608512878
F-0.3392585813999176
tp1230
a(F3.543562173843384
F-0.7247868180274963
F-0.3376050591468811
tp1231
a(F4.736052989959717
F-0.9686944484710693
F-0.3379495143890381
tp1232
a(F7.1133623123168945
F-1.4549401998519897
F-0.33801618218421936
tp1233
a(F14.24090576171875
F-2.912781238555908
F-0.33796241879463196
tp1234
a(F0.8543922305107117
F-0.12398563325405121
F-0.33721283078193665
tp1235
a(F0.9227727651596069
F-0.1339087188243866
F-0.3394090235233307
tp1236
a(F0.9910590052604675
F-0.14381811022758484
F-0.3383461534976959
tp1237
a(F1.0740410089492798
F-0.15586011111736298
F-0.3387473225593567
tp1238
a(F1.1652135848999023
F-0.1690906584262848
F-0.33764025568962097
tp1239
a(F1.2923802137374878
F-0.18754452466964722
F-0.3418067395687103
tp1240
a(F1.4075970649719238
F-0.20426428318023682
F-0.3371144235134125
tp1241
a(F1.5778790712356567
F-0.2289748638868332
F-0.33891022205352783
tp1242
a(F1.767572045326233
F-0.25650227069854736
F-0.33641111850738525
tp1243
a(F2.048827648162842
F-0.29731684923171997
F-0.34025463461875916
tp1244
a(F2.383721351623535
F-0.34591513872146606
F-0.3385043442249298
tp1245
a(F2.8806397914886475
F-0.41802576184272766
F-0.34019631147384644
tp1246
a(F3.595463275909424
F-0.5217577815055847
F-0.33911702036857605
tp1247
a(F4.780641078948975
F-0.6937455534934998
F-0.3377125561237335
tp1248
a(F7.183017253875732
F-1.0423678159713745
F-0.33790555596351624
tp1249
a(F14.395981788635254
F-2.0890815258026123
F-0.33821892738342285
tp1250
a(F0.8648918271064758
F-0.07497047632932663
F-0.3390851318836212
tp1251
a(F0.934938907623291
F-0.08104228973388672
F-0.3415954113006592
tp1252
a(F0.9872695207595825
F-0.08557841181755066
F-0.33480939269065857
tp1253
a(F1.084960699081421
F-0.0940464660525322
F-0.33991411328315735
tp1254
a(F1.181135654449463
F-0.102383092045784
F-0.33997631072998047
tp1255
a(F1.2677621841430664
F-0.10989204049110413
F-0.333064466714859
tp1256
a(F1.414699673652649
F-0.12262886762619019
F-0.3365606665611267
tp1257
a(F1.5921117067337036
F-0.1380072832107544
F-0.33969148993492126
tp1258
a(F1.7905349731445312
F-0.15520697832107544
F-0.33851364254951477
tp1259
a(F2.0364248752593994
F-0.1765211820602417
F-0.33594420552253723
tp1260
a(F2.397923707962036
F-0.20785659551620483
F-0.3382550776004791
tp1261
a(F2.894472122192383
F-0.2508983612060547
F-0.339555025100708
tp1262
a(F3.6243839263916016
F-0.3141685128211975
F-0.3395698070526123
tp1263
a(F4.815219879150391
F-0.41739243268966675
F-0.3378915786743164
tp1264
a(F7.231074810028076
F-0.6268033385276794
F-0.3379025161266327
tp1265
a(F14.486990928649902
F-1.2557600736618042
F-0.33809205889701843
tp1266
a(F0.8764967918395996
F-0.025269323959946632
F-0.3424934148788452
tp1267
a(F0.9196183681488037
F-0.026512514799833298
F-0.33488166332244873
tp1268
a(F1.0030802488327026
F-0.028918713331222534
F-0.33904120326042175
tp1269
a(F1.0901570320129395
F-0.03142913058400154
F-0.34040752053260803
tp1270
a(F1.1661449670791626
F-0.03361985459923744
F-0.33454638719558716
tp1271
a(F1.2967275381088257
F-0.03738453611731529
F-0.3395425081253052
tp1272
a(F1.4265954494476318
F-0.04112861678004265
F-0.33826330304145813
tp1273
a(F1.5941284894943237
F-0.04595857858657837
F-0.3389919102191925
tp1274
a(F1.810324788093567
F-0.05219149962067604
F-0.34111812710762024
tp1275
a(F2.0581276416778564
F-0.05933563411235809
F-0.3383966088294983
tp1276
a(F2.408853530883789
F-0.06944703310728073
F-0.3386680781841278
tp1277
a(F2.8878114223480225
F-0.0832553431391716
F-0.33764830231666565
tp1278
a(F3.6238901615142822
F-0.1044764295220375
F-0.3383956849575043
tp1279
a(F4.836088180541992
F-0.13942398130893707
F-0.33822864294052124
tp1280
a(F7.257431507110596
F-0.20923109352588654
F-0.3380075991153717
tp1281
a(F14.548336029052734
F-0.41942721605300903
F-0.3383958339691162
tp1282
a(F0.8681596517562866
F0.02502896450459957
F-0.3392356336116791
tp1283
a(F0.9325827360153198
F0.02688627503812313
F-0.33960264921188354
tp1284
a(F1.0107710361480713
F0.02914043702185154
F-0.3416406810283661
tp1285
a(F1.0819485187530518
F0.0311924796551466
F-0.3378443717956543
tp1286
a(F1.1703333854675293
F0.033740606158971786
F-0.33574798703193665
tp1287
a(F1.2832164764404297
F0.036995016038417816
F-0.33600470423698425
tp1288
a(F1.4221314191818237
F0.04099992290139198
F-0.33720484375953674
tp1289
a(F1.599879503250122
F0.046124380081892014
F-0.34021487832069397
tp1290
a(F1.7981767654418945
F0.05184127390384674
F-0.33882907032966614
tp1291
a(F2.059476375579834
F0.05937451869249344
F-0.33861836791038513
tp1292
a(F2.3984572887420654
F0.06914730370044708
F-0.3372064232826233
tp1293
a(F2.8903000354766846
F0.08332709223031998
F-0.3379392623901367
tp1294
a(F3.6290740966796875
F0.1046258807182312
F-0.3388797640800476
tp1295
a(F4.830966949462891
F0.13927634060382843
F-0.3378704786300659
tp1296
a(F7.257956027984619
F0.20924623310565948
F-0.3380320370197296
tp1297
a(F14.553048133850098
F0.41956308484077454
F-0.33850547671318054
tp1298
a(F0.8704380989074707
F0.07545123249292374
F-0.34125956892967224
tp1299
a(F0.9312735199928284
F0.0807245671749115
F-0.3402561843395233
tp1300
a(F0.996943473815918
F0.08641695976257324
F-0.33809006214141846
tp1301
a(F1.0732685327529907
F0.09303297102451324
F-0.33625102043151855
tp1302
a(F1.1822963953018188
F0.10248371213674545
F-0.3403104543685913
tp1303
a(F1.29106605052948
F0.1119120717048645
F-0.33918681740760803
tp1304
a(F1.4187053442001343
F0.12297608703374863
F-0.33751365542411804
tp1305
a(F1.5880619287490845
F0.13765624165534973
F-0.3388274013996124
tp1306
a(F1.7774642705917358
F0.15407399833202362
F-0.33604252338409424
tp1307
a(F2.0492284297943115
F0.17763103544712067
F-0.33805638551712036
tp1308
a(F2.412248134613037
F0.20909826457500458
F-0.34027570486068726
tp1309
a(F2.8836820125579834
F0.24996306002140045
F-0.3382892310619354
tp1310
a(F3.597212791442871
F0.31181326508522034
F-0.33702415227890015
tp1311
a(F4.816370964050293
F0.41749224066734314
F-0.33797234296798706
tp1312
a(F7.236037731170654
F0.6272335648536682
F-0.33813443779945374
tp1313
a(F14.48769760131836
F1.2558213472366333
F-0.3381085693836212
tp1314
a(F84.50468444824219
F7.3250274658203125
F0.002421518787741661
tp1315
a(F84.50418090820312
F7.324984073638916
F1.9769731760025024
tp1316
a(F84.52552795410156
F7.326834201812744
F3.954667568206787
tp1317
a(F84.51016998291016
F7.325502872467041
F5.935079097747803
tp1318
a(F84.51602172851562
F7.326010227203369
F7.923222064971924
tp1319
a(F84.51915740966797
F7.326281547546387
F9.919983863830566
tp1320
a(F0.8467044234275818
F0.12287002056837082
F-0.3341785967350006
tp1321
a(F0.9205476641654968
F0.1335858255624771
F-0.3385905921459198
tp1322
a(F0.9909196496009827
F0.1437978893518448
F-0.3382985591888428
tp1323
a(F1.075759768486023
F0.1561095267534256
F-0.33928942680358887
tp1324
a(F1.170798659324646
F0.16990113258361816
F-0.3392586410045624
tp1325
a(F1.2841287851333618
F0.1863471120595932
F-0.33962443470954895
tp1326
a(F1.420657753944397
F0.2061595916748047
F-0.3402424156665802
tp1327
a(F1.571547269821167
F0.22805601358413696
F-0.33755019307136536
tp1328
a(F1.7690060138702393
F0.25671035051345825
F-0.33668404817581177
tp1329
a(F2.0417869091033936
F0.2962951064109802
F-0.33908534049987793
tp1330
a(F2.381474018096924
F0.3455890119075775
F-0.33818522095680237
tp1331
a(F2.8752951622009277
F0.4172501564025879
F-0.33956512808799744
tp1332
a(F3.585319995880127
F0.5202858448028564
F-0.33816030621528625
tp1333
a(F4.782723426818848
F0.694047749042511
F-0.3378596603870392
tp1334
a(F7.198658466339111
F1.0446375608444214
F-0.33864134550094604
tp1335
a(F14.403648376464844
F2.0901939868927
F-0.3383990526199341
tp1336
a(F64.9828109741211
F9.43001937866211
F0.0018745861016213894
tp1337
a(F65.00027465820312
F9.432554244995117
F1.5308674573898315
tp1338
a(F64.99171447753906
F9.43131160736084
F3.0611166954040527
tp1339
a(F65.00830078125
F9.433717727661133
F4.596065044403076
tp1340
a(F65.00919342041016
F9.433847427368164
F6.135322093963623
tp1341
a(F64.9805679321289
F9.429693222045898
F7.677841663360596
tp1342
a(F64.99571990966797
F9.431892395019531
F9.233650207519531
tp1343
a(F64.99319458007812
F9.431526184082031
F10.797455787658691
tp1344
a(F64.9981689453125
F9.432247161865234
F12.374584197998047
tp1345
a(F0.857912540435791
F0.17547419667243958
F-0.3420298099517822
tp1346
a(F0.907188355922699
F0.18555288016796112
F-0.337054580450058
tp1347
a(F0.9653019905090332
F0.19743922352790833
F-0.33288872241973877
tp1348
a(F1.060796856880188
F0.21697138249874115
F-0.337956964969635
tp1349
a(F1.1708807945251465
F0.23948754370212555
F-0.34271693229675293
tp1350
a(F1.2573667764663696
F0.25717705488204956
F-0.3359127342700958
tp1351
a(F1.3847661018371582
F0.2832348346710205
F-0.33500364422798157
tp1352
a(F1.5369919538497925
F0.3143705427646637
F-0.333469957113266
tp1353
a(F1.763977289199829
F0.360797256231308
F-0.33912545442581177
tp1354
a(F2.0194592475891113
F0.41305258870124817
F-0.3387722671031952
tp1355
a(F2.3734257221221924
F0.48545151948928833
F-0.3404541015625
tp1356
a(F2.8370323181152344
F0.5802758932113647
F-0.3384379744529724
tp1357
a(F3.5515332221984863
F0.7264171838760376
F-0.33836448192596436
tp1358
a(F4.723756790161133
F0.966179370880127
F-0.33707207441329956
tp1359
a(F7.119053363800049
F1.4561042785644531
F-0.3382866382598877
tp1360
a(F14.243952751159668
F2.9134042263031006
F-0.3380347192287445
tp1361
a(F65.10087585449219
F13.3154878616333
F0.0018970025703310966
tp1362
a(F65.09883880615234
F13.315071105957031
F1.5487090349197388
tp1363
a(F65.11376953125
F13.318123817443848
F3.0979106426239014
tp1364
a(F65.1152572631836
F13.318428993225098
F4.650228500366211
tp1365
a(F65.11455535888672
F13.318285942077637
F6.207473278045654
tp1366
a(F65.10665893554688
F13.316671371459961
F7.7706122398376465
tp1367
a(F65.10938262939453
F13.317228317260742
F9.343432426452637
tp1368
a(F65.111083984375
F13.317575454711914
F10.926539421081543
tp1369
a(F65.11396026611328
F13.318163871765137
F12.522117614746094
tp1370
a(F0.8498645424842834
F0.22553393244743347
F-0.34343868494033813
tp1371
a(F0.9025269746780396
F0.23950931429862976
F-0.3398924767971039
tp1372
a(F0.9548782110214233
F0.25340208411216736
F-0.3337816298007965
tp1373
a(F1.0489168167114258
F0.27835771441459656
F-0.3387261927127838
tp1374
a(F1.1571017503738403
F0.3070674240589142
F-0.34329935908317566
tp1375
a(F1.2401115894317627
F0.3290962874889374
F-0.3358179032802582
tp1376
a(F1.3823341131210327
F0.3668387532234192
F-0.33897268772125244
tp1377
a(F1.5360792875289917
F0.4076390862464905
F-0.33781373500823975
tp1378
a(F1.746026873588562
F0.4633542001247406
F-0.3402489721775055
tp1379
a(F1.9931013584136963
F0.5289219617843628
F-0.3389071226119995
tp1380
a(F2.3290886878967285
F0.6180850267410278
F-0.3386472165584564
tp1381
a(F2.789666175842285
F0.7403113842010498
F-0.3373227119445801
tp1382
a(F3.5131094455718994
F0.932296097278595
F-0.33926501870155334
tp1383
a(F4.673147201538086
F1.2401427030563354
F-0.3380051255226135
tp1384
a(F7.030920505523682
F1.8658398389816284
F-0.33865174651145935
tp1385
a(F14.051352500915527
F3.728896379470825
F-0.3380083739757538
tp1386
a(F52.19237518310547
F13.850621223449707
F0.0015415821690112352
tp1387
a(F52.17585372924805
F13.846236228942871
F1.2581855058670044
tp1388
a(F52.166534423828125
F13.84376335144043
F2.515744924545288
tp1389
a(F52.16817092895508
F13.844197273254395
F3.7763798236846924
tp1390
a(F52.18571472167969
F13.84885311126709
F5.042744159698486
tp1391
a(F52.17943572998047
F13.847187042236328
F6.312592506408691
tp1392
a(F52.18098831176758
F13.847599029541016
F7.590208530426025
tp1393
a(F52.186195373535156
F13.848981857299805
F8.876911163330078
tp1394
a(F52.1788330078125
F13.847027778625488
F10.171302795410156
tp1395
a(F0.8180077075958252
F0.2683955729007721
F-0.33626464009284973
tp1396
a(F0.869026243686676
F0.2851352095603943
F-0.3329189419746399
tp1397
a(F0.9405205249786377
F0.30859312415122986
F-0.33443138003349304
tp1398
a(F1.0235750675201416
F0.3358440697193146
F-0.33624184131622314
tp1399
a(F1.1260308027267456
F0.36946070194244385
F-0.33984118700027466
tp1400
a(F1.232786774635315
F0.4044882655143738
F-0.3395903408527374
tp1401
a(F1.3590786457061768
F0.445925772190094
F-0.339016318321228
tp1402
a(F1.510661005973816
F0.49566128849983215
F-0.3379519581794739
tp1403
a(F1.710364818572998
F0.5611858367919922
F-0.33904626965522766
tp1404
a(F1.9516812562942505
F0.6403639316558838
F-0.33758604526519775
tp1405
a(F2.285111665725708
F0.7497653961181641
F-0.3379817306995392
tp1406
a(F2.7426886558532715
F0.8999004364013672
F-0.3373604416847229
tp1407
a(F3.4443728923797607
F1.130129337310791
F-0.3383622467517853
tp1408
a(F4.5921311378479
F1.5067189931869507
F-0.33787214756011963
tp1409
a(F6.9091105461120605
F2.2669403553009033
F-0.3385225236415863
tp1410
a(F13.822552680969238
F4.53530216217041
F-0.33823761343955994
tp1411
a(F42.5588264465332
F13.963929176330566
F0.0012787143932655454
tp1412
a(F42.55672836303711
F13.963239669799805
F1.0439209938049316
tp1413
a(F42.55012512207031
F13.96107292175293
F2.087371587753296
tp1414
a(F42.55527114868164
F13.962761878967285
F3.1336302757263184
tp1415
a(F42.54386520385742
F13.959019660949707
F4.1819281578063965
tp1416
a(F42.56884002685547
F13.967214584350586
F5.238711833953857
tp1417
a(F42.56595993041992
F13.966268539428711
F6.298369407653809
tp1418
a(F42.54367446899414
F13.95895767211914
F7.36148738861084
tp1419
a(F42.56791305541992
F13.966909408569336
F8.440902709960938
tp1420
a(F0.8183751106262207
F0.32183656096458435
F-0.3434789776802063
tp1421
a(F0.8550635576248169
F0.3362647294998169
F-0.3344474732875824
tp1422
a(F0.9230762124061584
F0.36301159858703613
F-0.3351198732852936
tp1423
a(F1.01216721534729
F0.3980477750301361
F-0.3394753038883209
tp1424
a(F1.1103084087371826
F0.4366430938243866
F-0.34213167428970337
tp1425
a(F1.2192350625991821
F0.4794798493385315
F-0.3429088592529297
tp1426
a(F1.3395296335220337
F0.5267872214317322
F-0.34115535020828247
tp1427
a(F1.499124526977539
F0.5895500183105469
F-0.34241247177124023
tp1428
a(F1.6572743654251099
F0.6517444849014282
F-0.3354196846485138
tp1429
a(F1.9252967834472656
F0.7571477293968201
F-0.34001433849334717
tp1430
a(F2.23883056640625
F0.8804488778114319
F-0.33808889985084534
tp1431
a(F2.7005486488342285
F1.0620254278182983
F-0.3391513526439667
tp1432
a(F3.3757104873657227
F1.3275415897369385
F-0.3385796546936035
tp1433
a(F4.506476402282715
F1.772229790687561
F-0.338531494140625
tp1434
a(F6.774653911590576
F2.664219856262207
F-0.3389038145542145
tp1435
a(F13.539773941040039
F5.324690341949463
F-0.3382742404937744
tp1436
a(F35.71329879760742
F14.04471492767334
F0.001095564104616642
tp1437
a(F35.713375091552734
F14.044744491577148
F0.8944461941719055
tp1438
a(F35.71084976196289
F14.043750762939453
F1.7886402606964111
tp1439
a(F35.72785568237305
F14.050439834594727
F2.6861190795898438
tp1440
a(F35.716644287109375
F14.046030044555664
F3.5845463275909424
tp1441
a(F35.714962005615234
F14.045368194580078
F4.487524032592773
tp1442
a(F35.72311782836914
F14.048576354980469
F5.3968329429626465
tp1443
a(F35.71283721923828
F14.044532775878906
F6.309265613555908
tp1444
a(F35.71733856201172
F14.046303749084473
F7.231186389923096
tp1445
a(F0.7778192162513733
F0.35891905426979065
F-0.334593802690506
tp1446
a(F0.8438622355461121
F0.3893941342830658
F-0.3382926881313324
tp1447
a(F0.8986054062843323
F0.41465499997138977
F-0.3343668282032013
tp1448
a(F0.9891785979270935
F0.45644932985305786
F-0.3400338590145111
tp1449
a(F1.0745518207550049
F0.49584418535232544
F-0.3393661379814148
tp1450
a(F1.164230465888977
F0.5372257232666016
F-0.335599809885025
tp1451
a(F1.3124357461929321
F0.6056140065193176
F-0.34258589148521423
tp1452
a(F1.448030710220337
F0.6681833267211914
F-0.33898553252220154
tp1453
a(F1.6207343339920044
F0.7478761672973633
F-0.3361998200416565
tp1454
a(F1.8587727546691895
F0.8577172756195068
F-0.336447536945343
tp1455
a(F2.1896233558654785
F1.0103858709335327
F-0.33889928460121155
tp1456
a(F2.627577304840088
F1.2124764919281006
F-0.33821165561676025
tp1457
a(F3.2957940101623535
F1.5208203792572021
F-0.3388029932975769
tp1458
a(F4.390958786010742
F2.0261764526367188
F-0.33807486295700073
tp1459
a(F6.584771633148193
F3.0384953022003174
F-0.33761489391326904
tp1460
a(F13.203359603881836
F6.092595100402832
F-0.3380909264087677
tp1461
a(F30.5694580078125
F14.10605525970459
F0.0009611409623175859
tp1462
a(F30.576091766357422
F14.109116554260254
F0.7848683595657349
tp1463
a(F30.574068069458008
F14.108183860778809
F1.5695226192474365
tp1464
a(F30.5621395111084
F14.102679252624512
F2.3550143241882324
tp1465
a(F30.56473159790039
F14.103875160217285
F3.1439502239227295
tp1466
a(F30.569364547729492
F14.106013298034668
F3.9367198944091797
tp1467
a(F30.564237594604492
F14.103647232055664
F4.732544422149658
tp1468
a(F30.577682495117188
F14.109850883483887
F5.536694049835205
tp1469
a(F30.57937240600586
F14.110630989074707
F6.345276355743408
tp1470
a(F0.7600927948951721
F0.405397891998291
F-0.3364723026752472
tp1471
a(F0.8259551525115967
F0.4405257999897003
F-0.34073835611343384
tp1472
a(F0.8832682371139526
F0.47109389305114746
F-0.3382129669189453
tp1473
a(F0.9555374979972839
F0.5096389055252075
F-0.338017076253891
tp1474
a(F1.0464377403259277
F0.558120846748352
F-0.3400932550430298
tp1475
a(F1.1409345865249634
F0.608521044254303
F-0.33844414353370667
tp1476
a(F1.2591716051101685
F0.6715831160545349
F-0.3382359743118286
tp1477
a(F1.4036836624145508
F0.748659074306488
F-0.33815521001815796
tp1478
a(F1.5846714973449707
F0.8451895713806152
F-0.338273823261261
tp1479
a(F1.8144917488098145
F0.9677648544311523
F-0.3379788398742676
tp1480
a(F2.1355223655700684
F1.1389875411987305
F-0.34013304114341736
tp1481
a(F2.558960437774658
F1.364829659461975
F-0.33895352482795715
tp1482
a(F3.195878267288208
F1.7045316696166992
F-0.3380810618400574
tp1483
a(F4.2736663818359375
F2.2793734073638916
F-0.3386082947254181
tp1484
a(F6.400040626525879
F3.4134817123413086
F-0.3376813232898712
tp1485
a(F12.836273193359375
F6.846266746520996
F-0.33824509382247925
tp1486
a(F26.53472328186035
F14.15237808227539
F0.0008585337782278657
tp1487
a(F26.53815269470215
F14.154207229614258
F0.7010177373886108
tp1488
a(F26.538726806640625
F14.154513359069824
F1.4019672870635986
tp1489
a(F26.53998565673828
F14.155184745788574
F2.1045243740081787
tp1490
a(F26.543758392333984
F14.157196998596191
F2.809706211090088
tp1491
a(F26.54633331298828
F14.158570289611816
F3.5180022716522217
tp1492
a(F26.533828735351562
F14.151901245117188
F4.227898120880127
tp1493
a(F26.536670684814453
F14.153416633605957
F4.944653511047363
tp1494
a(F26.539958953857422
F14.155170440673828
F5.6671624183654785
tp1495
a(F0.735328197479248
F0.44842568039894104
F-0.33640533685684204
tp1496
a(F0.7845539450645447
F0.4784450829029083
F-0.33449244499206543
tp1497
a(F0.8627707958221436
F0.5261440873146057
F-0.3414224088191986
tp1498
a(F0.9289339780807495
F0.5664924383163452
F-0.33960551023483276
tp1499
a(F1.0186498165130615
F0.6212038993835449
F-0.3421436548233032
tp1500
a(F1.1056020259857178
F0.6742300391197205
F-0.33894094824790955
tp1501
a(F1.2219582796096802
F0.7451876997947693
F-0.3392268419265747
tp1502
a(F1.3625081777572632
F0.8308992981910706
F-0.3392226994037628
tp1503
a(F1.5335822105407715
F0.9352255463600159
F-0.3383258283138275
tp1504
a(F1.74924635887146
F1.066744089126587
F-0.33673202991485596
tp1505
a(F2.065600633621216
F1.2596665620803833
F-0.3400086760520935
tp1506
a(F2.4808599948883057
F1.5129045248031616
F-0.3396078944206238
tp1507
a(F3.100097417831421
F1.890534520149231
F-0.3389260470867157
tp1508
a(F4.133554935455322
F2.520768642425537
F-0.33846959471702576
tp1509
a(F6.208622455596924
F3.786208391189575
F-0.33854666352272034
tp1510
a(F12.436477661132812
F7.584145545959473
F-0.3386794626712799
tp1511
a(F23.267948150634766
F14.189509391784668
F0.0007780363084748387
tp1512
a(F23.27530288696289
F14.19399356842041
F0.6354078650474548
tp1513
a(F23.269512176513672
F14.190462112426758
F1.270410418510437
tp1514
a(F23.27501106262207
F14.193816184997559
F1.9074015617370605
tp1515
a(F23.279512405395508
F14.196561813354492
F2.5466623306274414
tp1516
a(F23.28108787536621
F14.197521209716797
F3.188554048538208
tp1517
a(F23.27581024169922
F14.194302558898926
F3.8329076766967773
tp1518
a(F23.259708404541016
F14.184483528137207
F4.479119777679443
tp1519
a(F23.269624710083008
F14.190530776977539
F5.135157108306885
tp1520
a(F0.7168509364128113
F0.49598008394241333
F-0.34047994017601013
tp1521
a(F0.7634563446044922
F0.5282257795333862
F-0.3379315435886383
tp1522
a(F0.8201845288276672
F0.5674752593040466
F-0.33696839213371277
tp1523
a(F0.8772996068000793
F0.6069925427436829
F-0.33298054337501526
tp1524
a(F0.9642167091369629
F0.6671293377876282
F-0.33623218536376953
tp1525
a(F1.0563668012619019
F0.7308868765830994
F-0.3362180292606354
tp1526
a(F1.1653225421905518
F0.8062719702720642
F-0.3358621299266815
tp1527
a(F1.3134084939956665
F0.908730685710907
F-0.33948972821235657
tp1528
a(F1.4779623746871948
F1.0225834846496582
F-0.33851078152656555
tp1529
a(F1.6985801458358765
F1.175226092338562
F-0.3394693434238434
tp1530
a(F1.9821771383285522
F1.371443271636963
F-0.3387405276298523
tp1531
a(F2.384615182876587
F1.6498850584030151
F-0.3389025628566742
tp1532
a(F2.982212543487549
F2.0633552074432373
F-0.33849263191223145
tp1533
a(F3.9865026473999023
F2.7582106590270996
F-0.3388980031013489
tp1534
a(F5.981573581695557
F4.138575077056885
F-0.33862560987472534
tp1535
a(F11.960701942443848
F8.275458335876465
F-0.33816540241241455
tp1536
a(F20.56809425354004
F14.230804443359375
F0.0007140306988731027
tp1537
a(F20.56330108642578
F14.227487564086914
F0.5828155279159546
tp1538
a(F20.573148727416992
F14.234301567077637
F1.166107416152954
tp1539
a(F20.5600528717041
F14.225240707397461
F1.7492725849151611
tp1540
a(F20.55653953552246
F14.222809791564941
F2.334686279296875
tp1541
a(F20.565814971923828
F14.229227066040039
F2.924269914627075
tp1542
a(F20.5655574798584
F14.229049682617188
F3.5159692764282227
tp1543
a(F20.567018508911133
F14.230059623718262
F4.111883163452148
tp1544
a(F20.564929962158203
F14.228615760803223
F4.71164608001709
tp1545
a(F0.6979476809501648
F0.5449360013008118
F-0.34586241841316223
tp1546
a(F0.7400251030921936
F0.577788770198822
F-0.34175020456314087
tp1547
a(F0.792317271232605
F0.6186168789863586
F-0.33962100744247437
tp1548
a(F0.8503521680831909
F0.6639286875724792
F-0.33673444390296936
tp1549
a(F0.9423796534538269
F0.7357809543609619
F-0.342853307723999
tp1550
a(F1.009768009185791
F0.7883957624435425
F-0.33530935645103455
tp1551
a(F1.1291851997375488
F0.881632924079895
F-0.3395453989505768
tp1552
a(F1.2467050552368164
F0.9733888506889343
F-0.3362082839012146
tp1553
a(F1.417832851409912
F1.1070001125335693
F-0.3388066589832306
tp1554
a(F1.628828525543213
F1.2717390060424805
F-0.3396312892436981
tp1555
a(F1.9031766653060913
F1.4859415292739868
F-0.33932948112487793
tp1556
a(F2.27394962310791
F1.7754297256469727
F-0.3371748924255371
tp1557
a(F2.8556864261627197
F2.2296319007873535
F-0.3381730318069458
tp1558
a(F3.806499481201172
F2.9719972610473633
F-0.3376140892505646
tp1559
a(F5.719428539276123
F4.465553283691406
F-0.33781176805496216
tp1560
a(F11.462536811828613
F8.94959545135498
F-0.33812016248703003
tp1561
a(F18.264389038085938
F14.260271072387695
F0.0006615242455154657
tp1562
a(F18.25826072692871
F14.255487442016602
F0.5399027466773987
tp1563
a(F18.25942611694336
F14.256397247314453
F1.0797985792160034
tp1564
a(F18.26497459411621
F14.260727882385254
F1.6213252544403076
tp1565
a(F18.26276397705078
F14.259002685546875
F2.1640279293060303
tp1566
a(F18.254138946533203
F14.25226879119873
F2.7080130577087402
tp1567
a(F18.27423667907715
F14.267960548400879
F3.259580135345459
tp1568
a(F18.260583877563477
F14.25730037689209
F3.8089206218719482
tp1569
a(F18.25551414489746
F14.253341674804688
F4.363724231719971
tp1570
a(F0.6480708718299866
F0.5690309405326843
F-0.3368583023548126
tp1571
a(F0.7032201886177063
F0.6174541711807251
F-0.3406417667865753
tp1572
a(F0.7536419034004211
F0.6617264151573181
F-0.3388478457927704
tp1573
a(F0.8083406090736389
F0.7097539901733398
F-0.335758775472641
tp1574
a(F0.8909593224525452
F0.782296359539032
F-0.34000441431999207
tp1575
a(F0.9725345969200134
F0.8539224863052368
F-0.3387453556060791
tp1576
a(F1.0661115646362305
F0.9360866546630859
F-0.33626338839530945
tp1577
a(F1.208845853805542
F1.0614128112792969
F-0.3419478237628937
tp1578
a(F1.354984998703003
F1.1897286176681519
F-0.3396297097206116
tp1579
a(F1.5471830368041992
F1.3584858179092407
F-0.3383905589580536
tp1580
a(F1.797331690788269
F1.5781258344650269
F-0.33613595366477966
tp1581
a(F2.170649528503418
F1.905913233757019
F-0.3376045823097229
tp1582
a(F2.7241241931915283
F2.391885280609131
F-0.3383760154247284
tp1583
a(F3.6397500038146973
F3.1958396434783936
F-0.3386184275150299
tp1584
a(F5.446762561798096
F4.78246545791626
F-0.3374464213848114
tp1585
a(F10.938618659973145
F9.604524612426758
F-0.33845198154449463
tp1586
a(F16.263076782226562
F14.27960205078125
F0.0006178563926368952
tp1587
a(F16.27998161315918
F14.294445991516113
F0.504956841468811
tp1588
a(F16.259521484375
F14.276481628417969
F1.0085736513137817
tp1589
a(F16.264768600463867
F14.281087875366211
F1.514409065246582
tp1590
a(F16.2661190032959
F14.28227424621582
F2.0217363834381104
tp1591
a(F16.257808685302734
F14.27497673034668
F2.5298547744750977
tp1592
a(F16.25787353515625
F14.27503490447998
F3.0417983531951904
tp1593
a(F16.26402473449707
F14.280435562133789
F3.558439016342163
tp1594
a(F16.260517120361328
F14.277355194091797
F4.077010631561279
tp1595
a(F0.6115917563438416
F0.60284024477005
F-0.3354215621948242
tp1596
a(F0.6600927710533142
F0.6506472229957581
F-0.33737748861312866
tp1597
a(F0.7175111174583435
F0.7072439193725586
F-0.34038692712783813
tp1598
a(F0.775253415107727
F0.7641599774360657
F-0.3397670388221741
tp1599
a(F0.843653678894043
F0.8315814733505249
F-0.339699923992157
tp1600
a(F0.926539957523346
F0.9132817387580872
F-0.3405156135559082
tp1601
a(F1.0124223232269287
F0.9979351162910461
F-0.3369327187538147
tp1602
a(F1.1334748268127441
F1.117255449295044
F-0.3383026123046875
tp1603
a(F1.271251916885376
F1.253061056137085
F-0.33620747923851013
tp1604
a(F1.4612741470336914
F1.440364122390747
F-0.33721962571144104
tp1605
a(F1.7099429368972778
F1.6854746341705322
F-0.3374216556549072
tp1606
a(F2.0634472370147705
F2.0339205265045166
F-0.3386230766773224
tp1607
a(F2.569031000137329
F2.5322697162628174
F-0.33670270442962646
tp1608
a(F3.4424591064453125
F3.3931994438171387
F-0.33791881799697876
tp1609
a(F5.179346561431885
F5.105233192443848
F-0.3385680019855499
tp1610
a(F10.362391471862793
F10.214111328125
F-0.3382977545261383
tp1611
a(F14.511960983276367
F14.304303169250488
F0.0005817220662720501
tp1612
a(F14.512384414672852
F14.304720878601074
F0.47494542598724365
tp1613
a(F14.505970001220703
F14.2983980178833
F0.9494043588638306
tp1614
a(F14.507376670837402
F14.299784660339355
F1.42524254322052
tp1615
a(F14.502705574035645
F14.295180320739746
F1.901928424835205
tp1616
a(F14.507627487182617
F14.300031661987305
F2.38196063041687
tp1617
a(F14.50989055633545
F14.302262306213379
F2.8644111156463623
tp1618
a(F14.50472354888916
F14.297168731689453
F3.3484630584716797
tp1619
a(F14.510197639465332
F14.302565574645996
F3.8387105464935303
tp1620
a(F0.5798312425613403
F0.6414838433265686
F-0.3377433717250824
tp1621
a(F0.6259012222290039
F0.6924524307250977
F-0.3397604823112488
tp1622
a(F0.6724189519882202
F0.7439162731170654
F-0.3387974202632904
tp1623
a(F0.7329434752464294
F0.8108763098716736
F-0.34116458892822266
tp1624
a(F0.7976475358009338
F0.8824602961540222
F-0.3411129415035248
tp1625
a(F0.8597769141197205
F0.9511957764625549
F-0.3355942964553833
tp1626
a(F0.9618978500366211
F1.064175009727478
F-0.33999016880989075
tp1627
a(F1.0756490230560303
F1.190021276473999
F-0.34097298979759216
tp1628
a(F1.2074652910232544
F1.3358533382415771
F-0.33916133642196655
tp1629
a(F1.379840612411499
F1.5265570878982544
F-0.3381940722465515
tp1630
a(F1.6147198677062988
F1.7864106893539429
F-0.3384109437465668
tp1631
a(F1.9400912523269653
F2.146378517150879
F-0.3381436765193939
tp1632
a(F2.4345076084136963
F2.6933653354644775
F-0.33887872099876404
tp1633
a(F3.2426934242248535
F3.587484359741211
F-0.33806905150413513
tp1634
a(F4.866600036621094
F5.384058475494385
F-0.3378722369670868
tp1635
a(F9.753032684326172
F10.790059089660645
F-0.33816975355148315
tp1636
a(F12.942852020263672
F14.319046974182129
F0.0005510300979949534
tp1637
a(F12.935002326965332
F14.310361862182617
F0.44960108399391174
tp1638
a(F12.935713768005371
F14.311149597167969
F0.8991885185241699
tp1639
a(F12.940248489379883
F14.316165924072266
F1.3502010107040405
tp1640
a(F12.944669723510742
F14.32105827331543
F1.802984595298767
tp1641
a(F12.954981803894043
F14.332466125488281
F2.2590763568878174
tp1642
a(F12.944426536560059
F14.320788383483887
F2.714000701904297
tp1643
a(F12.942132949829102
F14.318251609802246
F3.1732029914855957
tp1644
a(F12.936887741088867
F14.312448501586914
F3.634944438934326
tp1645
a(F0.53403240442276
F0.6640271544456482
F-0.33283308148384094
tp1646
a(F0.5810554623603821
F0.7224965691566467
F-0.33748793601989746
tp1647
a(F0.6208519339561462
F0.771980345249176
F-0.3347046971321106
tp1648
a(F0.6840097904205322
F0.8505121469497681
F-0.34066644310951233
tp1649
a(F0.740794837474823
F0.9211199283599854
F-0.33896803855895996
tp1650
a(F0.8085236549377441
F1.0053353309631348
F-0.33767205476760864
tp1651
a(F0.8904302716255188
F1.1071797609329224
F-0.33675259351730347
tp1652
a(F0.9881073236465454
F1.2286334037780762
F-0.3351406455039978
tp1653
a(F1.120186686515808
F1.3928636312484741
F-0.33666321635246277
tp1654
a(F1.2907154560089111
F1.604902744293213
F-0.33848637342453003
tp1655
a(F1.5087034702301025
F1.8759536743164062
F-0.3383176922798157
tp1656
a(F1.8196139335632324
F2.2625463008880615
F-0.339337557554245
tp1657
a(F2.274279832839966
F2.8278872966766357
F-0.3387276530265808
tp1658
a(F3.024409532546997
F3.7606143951416016
F-0.3373756408691406
tp1659
a(F4.550365924835205
F5.658020973205566
F-0.33802345395088196
tp1660
a(F9.115509033203125
F11.334415435791016
F-0.3381813168525696
tp1661
a(F11.5335111618042
F14.341010093688965
F0.0005253884010016918
tp1662
a(F11.542815208435059
F14.352579116821289
F0.42928546667099
tp1663
a(F11.524185180664062
F14.329414367675781
F0.8571250438690186
tp1664
a(F11.522942543029785
F14.327869415283203
F1.286449670791626
tp1665
a(F11.531959533691406
F14.339080810546875
F1.718611717224121
tp1666
a(F11.52925968170166
F14.335723876953125
F2.1511423587799072
tp1667
a(F11.532470703125
F14.339716911315918
F2.5871589183807373
tp1668
a(F11.524291038513184
F14.329545974731445
F3.0232901573181152
tp1669
a(F11.525785446166992
F14.331403732299805
F3.4650704860687256
tp1670
a(F0.4969707727432251
F0.6966081857681274
F-0.33423277735710144
tp1671
a(F0.5463046431541443
F0.7657598853111267
F-0.3424009084701538
tp1672
a(F0.5832576155662537
F0.817557156085968
F-0.3393075466156006
tp1673
a(F0.628387451171875
F0.8808160424232483
F-0.33771777153015137
tp1674
a(F0.6801462173461914
F0.9533666968345642
F-0.33583226799964905
tp1675
a(F0.7412984371185303
F1.0390843152999878
F-0.33408334851264954
tp1676
a(F0.8350728154182434
F1.170528769493103
F-0.34079620242118835
tp1677
a(F0.9213445782661438
F1.2914565801620483
F-0.33721309900283813
tp1678
a(F1.044870138168335
F1.4646034240722656
F-0.3388651907444
tp1679
a(F1.1976693868637085
F1.6787832975387573
F-0.33892759680747986
tp1680
a(F1.3955272436141968
F1.9561223983764648
F-0.33769023418426514
tp1681
a(F1.6782368421554565
F2.3523988723754883
F-0.3377266526222229
tp1682
a(F2.103910446166992
F2.949069023132324
F-0.33813750743865967
tp1683
a(F2.8082878589630127
F3.936401128768921
F-0.338044673204422
tp1684
a(F4.220700740814209
F5.916192531585693
F-0.33833304047584534
tp1685
a(F8.450292587280273
F11.844847679138184
F-0.3382982611656189
tp1686
a(F10.242809295654297
F14.357433319091797
F0.0005034976056776941
tp1687
a(F10.238965034484863
F14.352045059204102
F0.41091299057006836
tp1688
a(F10.241061210632324
F14.354982376098633
F0.8219364881515503
tp1689
a(F10.239965438842773
F14.353446960449219
F1.2336366176605225
tp1690
a(F10.242172241210938
F14.356539726257324
F1.6471232175827026
tp1691
a(F10.243146896362305
F14.357906341552734
F2.0623409748077393
tp1692
a(F10.24229907989502
F14.356718063354492
F2.4794626235961914
tp1693
a(F10.244955062866211
F14.360440254211426
F2.900247097015381
tp1694
a(F10.235209465026855
F14.346780776977539
F3.320455551147461
tp1695
a(F0.46110236644744873
F0.732164740562439
F-0.3379634618759155
tp1696
a(F0.49643445014953613
F0.7882670760154724
F-0.33909091353416443
tp1697
a(F0.5316457748413086
F0.8441776037216187
F-0.33706194162368774
tp1698
a(F0.57993483543396
F0.9208537936210632
F-0.3396720886230469
tp1699
a(F0.6379281878471375
F1.0129389762878418
F-0.3432781398296356
tp1700
a(F0.6929349303245544
F1.1002817153930664
F-0.340336412191391
tp1701
a(F0.7609297037124634
F1.2082477807998657
F-0.3384302258491516
tp1702
a(F0.847161054611206
F1.3451708555221558
F-0.3379111588001251
tp1703
a(F0.9452164173126221
F1.500868797302246
F-0.33407971262931824
tp1704
a(F1.1020236015319824
F1.7498562335968018
F-0.3398717939853668
tp1705
a(F1.2822816371917725
F2.0360801219940186
F-0.3381565511226654
tp1706
a(F1.545188307762146
F2.453538656234741
F-0.33888137340545654
tp1707
a(F1.9356937408447266
F3.0736052989959717
F-0.3390447199344635
tp1708
a(F2.5814738273620605
F4.0990118980407715
F-0.3386526107788086
tp1709
a(F3.867274522781372
F6.140679836273193
F-0.33784618973731995
tp1710
a(F7.761054992675781
F12.323447227478027
F-0.33861249685287476
tp1711
a(F9.051630973815918
F14.372697830200195
F0.00048490799963474274
tp1712
a(F9.04607105255127
F14.363869667053223
F0.3956471085548401
tp1713
a(F9.05228328704834
F14.373733520507812
F0.791782021522522
tp1714
a(F9.0421142578125
F14.357586860656738
F1.187170147895813
tp1715
a(F9.048583030700684
F14.367857933044434
F1.5858744382858276
tp1716
a(F9.05388355255127
F14.376275062561035
F1.9866262674331665
tp1717
a(F9.048745155334473
F14.36811637878418
F2.3872761726379395
tp1718
a(F9.054550170898438
F14.377333641052246
F2.793483018875122
tp1719
a(F9.049474716186523
F14.369274139404297
F3.1994733810424805
tp1720
a(F0.4228573143482208
F0.7660320997238159
F-0.3417639434337616
tp1721
a(F0.45554646849632263
F0.8252504467964172
F-0.3431206941604614
tp1722
a(F0.47924935817718506
F0.8681897521018982
F-0.33504942059516907
tp1723
a(F0.5261390805244446
F0.9531332850456238
F-0.3398139178752899
tp1724
a(F0.5679634809494019
F1.0289008617401123
F-0.33701926469802856
tp1725
a(F0.6203396916389465
F1.1237835884094238
F-0.3359738886356354
tp1726
a(F0.6908168792724609
F1.2514573335647583
F-0.3388032019138336
tp1727
a(F0.7704044580459595
F1.3956351280212402
F-0.33885613083839417
tp1728
a(F0.8713597655296326
F1.5785218477249146
F-0.33960673213005066
tp1729
a(F0.9880679249763489
F1.7899458408355713
F-0.33602455258369446
tp1730
a(F1.1683200597763062
F2.116483688354492
F-0.33974745869636536
tp1731
a(F1.400626301765442
F2.537320852279663
F-0.3387259840965271
tp1732
a(F1.7434055805206299
F3.1582865715026855
F-0.3367276191711426
tp1733
a(F2.3381388187408447
F4.235682487487793
F-0.3382337689399719
tp1734
a(F3.508533000946045
F6.355923652648926
F-0.33798667788505554
tp1735
a(F7.025974750518799
F12.727986335754395
F-0.3380250036716461
tp1736
a(F7.939115524291992
F14.382196426391602
F0.0004689911147579551
tp1737
a(F7.939736843109131
F14.383321762084961
F0.3829253315925598
tp1738
a(F7.9418745040893555
F14.387194633483887
F0.7660030722618103
tp1739
a(F7.9389262199401855
F14.381853103637695
F1.1493828296661377
tp1740
a(F7.9324445724487305
F14.370111465454102
F1.5330462455749512
tp1741
a(F7.934916019439697
F14.374588966369629
F1.9199219942092896
tp1742
a(F7.9339680671691895
F14.372872352600098
F2.3081538677215576
tp1743
a(F7.936348915100098
F14.377184867858887
F2.6999757289886475
tp1744
a(F7.942946434020996
F14.38913631439209
F3.0966830253601074
tp1745
a(F0.3756198585033417
F0.7841061353683472
F-0.3395918607711792
tp1746
a(F0.401084840297699
F0.8372641801834106
F-0.33793002367019653
tp1747
a(F0.43520063161849976
F0.9084808826446533
F-0.34034013748168945
tp1748
a(F0.4661804437637329
F0.9731512069702148
F-0.33679914474487305
tp1749
a(F0.5097911357879639
F1.0641884803771973
F-0.3383786380290985
tp1750
a(F0.5532803535461426
F1.1549721956253052
F-0.33519500494003296
tp1751
a(F0.620981752872467
F1.296298861503601
F-0.34067460894584656
tp1752
a(F0.6898329257965088
F1.4400255680084229
F-0.3394038677215576
tp1753
a(F0.7741630673408508
F1.6160646677017212
F-0.33751073479652405
tp1754
a(F0.8911252617835999
F1.8602230548858643
F-0.3389996886253357
tp1755
a(F1.0355552434921265
F2.1617205142974854
F-0.33685576915740967
tp1756
a(F1.2476838827133179
F2.604538917541504
F-0.3375259339809418
tp1757
a(F1.5730572938919067
F3.2837555408477783
F-0.3398608863353729
tp1758
a(F2.0954625606536865
F4.3742756843566895
F-0.3390805721282959
tp1759
a(F3.1368796825408936
F6.548233509063721
F-0.3380245566368103
tp1760
a(F6.28649377822876
F13.12304973602295
F-0.3383195102214813
tp1761
a(F6.897700309753418
F14.398942947387695
F0.00045579878496937454
tp1762
a(F6.894143104553223
F14.391517639160156
F0.3719329237937927
tp1763
a(F6.895788192749023
F14.394951820373535
F0.7439911365509033
tp1764
a(F6.895046710968018
F14.393403053283691
F1.116648554801941
tp1765
a(F6.894287586212158
F14.39181900024414
F1.4904381036758423
tp1766
a(F6.897929668426514
F14.399421691894531
F1.8669657707214355
tp1767
a(F6.892363548278809
F14.387802124023438
F2.242945909500122
tp1768
a(F6.88818883895874
F14.379087448120117
F2.6213228702545166
tp1769
a(F6.89631986618042
F14.396060943603516
F3.0075221061706543
tp1770
a(F0.3297109007835388
F0.804172694683075
F-0.3394773602485657
tp1771
a(F0.3496945798397064
F0.8529133796691895
F-0.33554303646087646
tp1772
a(F0.3766392469406128
F0.9186320304870605
F-0.335442453622818
tp1773
a(F0.4079018235206604
F0.9948822259902954
F-0.33561500906944275
tp1774
a(F0.44587457180023193
F1.0874985456466675
F-0.3370482921600342
tp1775
a(F0.4869967997074127
F1.187796711921692
F-0.3360061049461365
tp1776
a(F0.5423722267150879
F1.3228586912155151
F-0.3388653099536896
tp1777
a(F0.5992318391799927
F1.461540699005127
F-0.33576586842536926
tp1778
a(F0.6850786805152893
F1.670923113822937
F-0.3401452302932739
tp1779
a(F0.783589780330658
F1.9111939668655396
F-0.33948302268981934
tp1780
a(F0.9174523949623108
F2.2376880645751953
F-0.33987799286842346
tp1781
a(F1.101989984512329
F2.687779664993286
F-0.33950722217559814
tp1782
a(F1.3749876022338867
F3.3536272048950195
F-0.33831730484962463
tp1783
a(F1.8399714231491089
F4.487733840942383
F-0.3390805423259735
tp1784
a(F2.761138677597046
F6.734482765197754
F-0.33884990215301514
tp1785
a(F5.523562431335449
F13.472100257873535
F-0.3385373651981354
tp1786
a(F5.906290054321289
F14.405580520629883
F0.0004444801597855985
tp1787
a(F5.905764579772949
F14.40429973602295
F0.3628517687320709
tp1788
a(F5.909666538238525
F14.413816452026367
F0.7261320352554321
tp1789
a(F5.906961441040039
F14.407218933105469
F1.089462399482727
tp1790
a(F5.907893657684326
F14.409491539001465
F1.4545410871505737
tp1791
a(F5.901270389556885
F14.393338203430176
F1.8189966678619385
tp1792
a(F5.895257949829102
F14.378673553466797
F2.1848530769348145
tp1793
a(F5.906277179718018
F14.405550003051758
F2.559753179550171
tp1794
a(F5.903909683227539
F14.399775505065918
F2.9322428703308105
tp1795
a(F0.28569504618644714
F0.8301476240158081
F-0.3429122269153595
tp1796
a(F0.3011960983276367
F0.8751891851425171
F-0.3369080722332001
tp1797
a(F0.32366853952407837
F0.9404876828193665
F-0.3360436260700226
tp1798
a(F0.35044780373573303
F1.0183005332946777
F-0.33613350987434387
tp1799
a(F0.38467851281166077
F1.1177650690078735
F-0.3389846980571747
tp1800
a(F0.4171701669692993
F1.2121765613555908
F-0.33553439378738403
tp1801
a(F0.46453729271888733
F1.3498117923736572
F-0.33833974599838257
tp1802
a(F0.5140089392662048
F1.49356210231781
F-0.33574923872947693
tp1803
a(F0.5826231241226196
F1.6929352283477783
F-0.33722081780433655
tp1804
a(F0.6670258045196533
F1.938185214996338
F-0.33687958121299744
tp1805
a(F0.7862194180488586
F2.28452730178833
F-0.3395361304283142
tp1806
a(F0.9410434365272522
F2.7344014644622803
F-0.3379743695259094
tp1807
a(F1.1759538650512695
F3.4169836044311523
F-0.3373016119003296
tp1808
a(F1.5714826583862305
F4.566276550292969
F-0.33760130405426025
tp1809
a(F2.3652563095092773
F6.872754096984863
F-0.33837640285491943
tp1810
a(F4.736698150634766
F13.763483047485352
F-0.3384276032447815
tp1811
a(F4.962923049926758
F14.42082691192627
F0.0004353894619271159
tp1812
a(F4.961765766143799
F14.417464256286621
F0.35537928342819214
tp1813
a(F4.964181900024414
F14.424485206604004
F0.7110547423362732
tp1814
a(F4.960660934448242
F14.414254188537598
F1.0665724277496338
tp1815
a(F4.960245132446289
F14.413044929504395
F1.4236366748809814
tp1816
a(F4.962507724761963
F14.4196195602417
F1.7831599712371826
tp1817
a(F4.959672451019287
F14.411381721496582
F2.142767906188965
tp1818
a(F4.960384368896484
F14.413450241088867
F2.506122589111328
tp1819
a(F4.957741737365723
F14.405771255493164
F2.870429277420044
tp1820
a(F0.2331654578447342
F0.8301723599433899
F-0.33680400252342224
tp1821
a(F0.25163716077804565
F0.8959397673606873
F-0.3387424349784851
tp1822
a(F0.2733096778392792
F0.9731035828590393
F-0.3414939045906067
tp1823
a(F0.29161760210990906
F1.038287878036499
F-0.3366161584854126
tp1824
a(F0.31577202677726746
F1.1242883205413818
F-0.3348795175552368
tp1825
a(F0.3526437282562256
F1.2555679082870483
F-0.34134435653686523
tp1826
a(F0.38843342661857605
F1.3829951286315918
F-0.3404722809791565
tp1827
a(F0.43391016125679016
F1.5449124574661255
F-0.34109628200531006
tp1828
a(F0.4845006763935089
F1.7250370979309082
F-0.3374844789505005
tp1829
a(F0.5604568123817444
F1.9954746961593628
F-0.34064891934394836
tp1830
a(F0.6538811326026917
F2.32810640335083
F-0.33983945846557617
tp1831
a(F0.7802939414978027
F2.7781922817230225
F-0.3372602164745331
tp1832
a(F0.9796735644340515
F3.488071918487549
F-0.33817562460899353
tp1833
a(F1.312326431274414
F4.672463417053223
F-0.33928850293159485
tp1834
a(F1.965366005897522
F6.9975738525390625
F-0.3383748531341553
tp1835
a(F3.9340577125549316
F14.006988525390625
F-0.33827006816864014
tp1836
a(F4.052003383636475
F14.426926612854004
F0.00042780209332704544
tp1837
a(F4.052724838256836
F14.429495811462402
F0.3493298590183258
tp1838
a(F4.051534175872803
F14.425256729125977
F0.6984054446220398
tp1839
a(F4.050524711608887
F14.421662330627441
F1.0480810403823853
tp1840
a(F4.053792476654053
F14.433297157287598
F1.4002008438110352
tp1841
a(F4.053407192230225
F14.431924819946289
F1.752839207649231
tp1842
a(F4.049542427062988
F14.418166160583496
F2.105527400970459
tp1843
a(F4.055571556091309
F14.439631462097168
F2.465879201889038
tp1844
a(F4.048577785491943
F14.4147310256958
F2.8209683895111084
tp1845
a(F0.18523751199245453
F0.8435342907905579
F-0.33732691407203674
tp1846
a(F0.19757474958896637
F0.8997156023979187
F-0.33530139923095703
tp1847
a(F0.210423544049263
F0.9582263827323914
F-0.3314601480960846
tp1848
a(F0.23358199000358582
F1.0636852979660034
F-0.339914470911026
tp1849
a(F0.25179266929626465
F1.1466130018234253
F-0.3366410434246063
tp1850
a(F0.277061402797699
F1.2616817951202393
F-0.3380972445011139
tp1851
a(F0.30713313817977905
F1.3986223936080933
F-0.33939146995544434
tp1852
a(F0.3425392508506775
F1.5598546266555786
F-0.3394662141799927
tp1853
a(F0.3848569691181183
F1.752561092376709
F-0.33796197175979614
tp1854
a(F0.4433586001396179
F2.018965721130371
F-0.33972617983818054
tp1855
a(F0.5179926156997681
F2.3588340282440186
F-0.33939674496650696
tp1856
a(F0.6197262406349182
F2.822108507156372
F-0.337688148021698
tp1857
a(F0.7773503661155701
F3.5398969650268555
F-0.33828815817832947
tp1858
a(F1.0357787609100342
F4.7167277336120605
F-0.3376007378101349
tp1859
a(F1.555720567703247
F7.084437847137451
F-0.3376722037792206
tp1860
a(F3.1233553886413574
F14.22313117980957
F-0.33857378363609314
tp1861
a(F3.1665005683898926
F14.41960620880127
F0.00042146522901020944
tp1862
a(F3.1722137928009033
F14.445622444152832
F0.3447149693965912
tp1863
a(F3.170290470123291
F14.436863899230957
F0.6889635324478149
tp1864
a(F3.166867733001709
F14.421277046203613
F1.033052921295166
tp1865
a(F3.1697278022766113
F14.434301376342773
F1.3802566528320312
tp1866
a(F3.169572353363037
F14.43359375
F1.7279517650604248
tp1867
a(F3.169977903366089
F14.435441017150879
F2.077878713607788
tp1868
a(F3.1718645095825195
F14.444031715393066
F2.4313273429870605
tp1869
a(F3.1750617027282715
F14.45859146118164
F2.7890543937683105
tp1870
a(F0.1367931216955185
F0.8556883931159973
F-0.33846738934516907
tp1871
a(F0.14866800606250763
F0.929969847202301
F-0.3428087532520294
tp1872
a(F0.1575823873281479
F0.9857324361801147
F-0.33726805448532104
tp1873
a(F0.17100980877876282
F1.0697256326675415
F-0.33812853693962097
tp1874
a(F0.18331791460514069
F1.1467170715332031
F-0.333011656999588
tp1875
a(F0.20476530492305756
F1.2808778285980225
F-0.3395099341869354
tp1876
a(F0.22586090862751007
F1.4128382205963135
F-0.33911406993865967
tp1877
a(F0.2506503164768219
F1.5679045915603638
F-0.3375087380409241
tp1878
a(F0.28305724263191223
F1.7706210613250732
F-0.33773282170295715
tp1879
a(F0.3259199559688568
F2.0387423038482666
F-0.33932459354400635
tp1880
a(F0.3774312138557434
F2.3609631061553955
F-0.3360101580619812
tp1881
a(F0.4583056569099426
F2.8668606281280518
F-0.33931389451026917
tp1882
a(F0.5725114345550537
F3.5812573432922363
F-0.33852025866508484
tp1883
a(F0.7617919445037842
F4.76527214050293
F-0.3373674750328064
tp1884
a(F1.1473965644836426
F7.17736291885376
F-0.33838239312171936
tp1885
a(F2.2961831092834473
F14.363421440124512
F-0.33819636702537537
tp1886
a(F2.3081564903259277
F14.438319206237793
F0.00041742451139725745
tp1887
a(F2.3093457221984863
F14.445757865905762
F0.3409707546234131
tp1888
a(F2.310007333755493
F14.449895858764648
F0.6820889711380005
tp1889
a(F2.3110833168029785
F14.456625938415527
F1.024327278137207
tp1890
a(F2.3089373111724854
F14.443202018737793
F1.3660937547683716
tp1891
a(F2.3072948455810547
F14.432929039001465
F1.7090885639190674
tp1892
a(F2.3092498779296875
F14.445157051086426
F2.056673526763916
tp1893
a(F2.310488224029541
F14.452903747558594
F2.4063735008239746
tp1894
a(F2.307945489883423
F14.43699836730957
F2.7546145915985107
tp1895
a(F0.08570558577775955
F0.8467119336128235
F-0.3324073851108551
tp1896
a(F0.09341695159673691
F0.9228948950767517
F-0.337651789188385
tp1897
a(F0.10154052078723907
F1.0031501054763794
F-0.3406558632850647
tp1898
a(F0.10793328285217285
F1.066306233406067
F-0.3345223665237427
tp1899
a(F0.12003296613693237
F1.185842752456665
F-0.3417936861515045
tp1900
a(F0.1298973560333252
F1.2832961082458496
F-0.33760231733322144
tp1901
a(F0.1441928595304489
F1.4245257377624512
F-0.33935749530792236
tp1902
a(F0.15887635946273804
F1.569588541984558
F-0.3353396952152252
tp1903
a(F0.18138132989406586
F1.7919222116470337
F-0.3392349183559418
tp1904
a(F0.20800712704658508
F2.054966688156128
F-0.3394623100757599
tp1905
a(F0.24176141619682312
F2.3884356021881104
F-0.33737316727638245
tp1906
a(F0.29159390926361084
F2.880746364593506
F-0.33840271830558777
tp1907
a(F0.3648613691329956
F3.6045780181884766
F-0.3381717801094055
tp1908
a(F0.4870678782463074
F4.811893939971924
F-0.3381156921386719
tp1909
a(F0.7317700386047363
F7.229382038116455
F-0.33828115463256836
tp1910
a(F1.4637223482131958
F14.460564613342285
F-0.3379325866699219
tp1911
a(F1.4641666412353516
F14.464953422546387
F0.00041506122215650976
tp1912
a(F1.4646881818771362
F14.47010612487793
F0.33898645639419556
tp1913
a(F1.4631917476654053
F14.455323219299316
F0.6772326827049255
tp1914
a(F1.4643510580062866
F14.466775894165039
F1.0173662900924683
tp1915
a(F1.4635926485061646
F14.459282875061035
F1.3573678731918335
tp1916
a(F1.463244080543518
F14.455840110778809
F1.6989758014678955
tp1917
a(F1.4646188020706177
F14.469420433044434
F2.0446925163269043
tp1918
a(F1.4638395309448242
F14.461722373962402
F2.389801263809204
tp1919
a(F1.4620593786239624
F14.444134712219238
F2.7353270053863525
tp1920
a(F0.03740568831562996
F0.8646479845046997
F-0.33803901076316833
tp1921
a(F0.0399862602353096
F0.9242990016937256
F-0.3367609977722168
tp1922
a(F0.04290437698364258
F0.9917525053024292
F-0.33538660407066345
tp1923
a(F0.0461520291864872
F1.0668232440948486
F-0.333294540643692
tp1924
a(F0.05104037746787071
F1.1798194646835327
F-0.33864524960517883
tp1925
a(F0.056119367480278015
F1.2972224950790405
F-0.3398486077785492
tp1926
a(F0.0615195706486702
F1.4220503568649292
F-0.33736082911491394
tp1927
a(F0.06882723420858383
F1.5909700393676758
F-0.3384960889816284
tp1928
a(F0.0774550661444664
F1.7904059886932373
F-0.3375401198863983
tp1929
a(F0.08916033059358597
F2.0609781742095947
F-0.3390413522720337
tp1930
a(F0.10378963500261307
F2.3991403579711914
F-0.33747774362564087
tp1931
a(F0.12452234327793121
F2.8783857822418213
F-0.3367210924625397
tp1932
a(F0.15648464858531952
F3.6172075271606445
F-0.33794718980789185
tp1933
a(F0.20888811349868774
F4.828535556793213
F-0.3378758728504181
tp1934
a(F0.31370773911476135
F7.251484394073486
F-0.3379060924053192
tp1935
a(F0.6254128217697144
F14.456676483154297
F-0.3364385664463043
tp1936
a(F0.626028299331665
F14.470903396606445
F0.0004135073395445943
tp1937
a(F0.6257373094558716
F14.464178085327148
F0.33744022250175476
tp1938
a(F0.6262530088424683
F14.476097106933594
F0.6753891706466675
tp1939
a(F0.6258739829063416
F14.467336654663086
F1.0131800174713135
tp1940
a(F0.6257419586181641
F14.46428394317627
F1.3521978855133057
tp1941
a(F0.6255830526351929
F14.460612297058105
F1.6924779415130615
tp1942
a(F0.6264501214027405
F14.4806547164917
F2.037781238555908
tp1943
a(F0.6257497668266296
F14.464465141296387
F2.380326986312866
tp1944
a(F0.6258829832077026
F14.467545509338379
F2.7283811569213867
tp1945
a(F-0.012373264878988266
F0.8586204648017883
F-0.3354036509990692
tp1946
a(F-0.013341041281819344
F0.9257775545120239
F-0.33701950311660767
tp1947
a(F-0.014653455466032028
F1.0168501138687134
F-0.34358835220336914
tp1948
a(F-0.015471593476831913
F1.0736234188079834
F-0.3351403772830963
tp1949
a(F-0.017008693888783455
F1.1802877187728882
F-0.33849820494651794
tp1950
a(F-0.01861661858856678
F1.2918667793273926
F-0.338164359331131
tp1951
a(F-0.020783953368663788
F1.4422650337219238
F-0.3418722450733185
tp1952
a(F-0.023022925481200218
F1.5976344347000122
F-0.3396316170692444
tp1953
a(F-0.02599673718214035
F1.8039968013763428
F-0.33981984853744507
tp1954
a(F-0.029632627964019775
F2.056303024291992
F-0.33799126744270325
tp1955
a(F-0.034485794603824615
F2.3930797576904297
F-0.3363455832004547
tp1956
a(F-0.04165559634566307
F2.890615224838257
F-0.3378708064556122
tp1957
a(F-0.05241754278540611
F3.637420892715454
F-0.3395533561706543
tp1958
a(F-0.06983926147222519
F4.846369743347168
F-0.33884212374687195
tp1959
a(F-0.10455778241157532
F7.255599498748779
F-0.33781698346138
tp1960
a(F-0.20872314274311066
F14.483966827392578
F-0.3367936611175537
tp1961
a(F-0.20887966454029083
F14.494828224182129
F0.0004138469521421939
tp1962
a(F-0.20870454609394073
F14.48267650604248
F0.33759111166000366
tp1963
a(F-0.2086862176656723
F14.481404304504395
F0.6750755310058594
tp1964
a(F-0.20858456194400787
F14.474350929260254
F1.0128291845321655
tp1965
a(F-0.20874352753162384
F14.485381126403809
F1.3530452251434326
tp1966
a(F-0.20870797336101532
F14.482914924621582
F1.6936801671981812
tp1967
a(F-0.20867615938186646
F14.480706214904785
F2.03609561920166
tp1968
a(F-0.20856896042823792
F14.473267555236816
F2.3797969818115234
tp1969
a(F-0.2085874080657959
F14.47454833984375
F2.7274341583251953
tp1970
a(F-0.06279099732637405
F0.8699411153793335
F-0.3406745493412018
tp1971
a(F-0.06677242368459702
F0.9251019954681396
F-0.33761462569236755
tp1972
a(F-0.07258167117834091
F1.0055866241455078
F-0.34063103795051575
tp1973
a(F-0.07846654951572418
F1.0871189832687378
F-0.34020060300827026
tp1974
a(F-0.08596684783697128
F1.1910321712493896
F-0.3424326777458191
tp1975
a(F-0.0933365747332573
F1.293136477470398
F-0.3393420875072479
tp1976
a(F-0.10256414115428925
F1.4209802150726318
F-0.3376680910587311
tp1977
a(F-0.11421002447605133
F1.5823286771774292
F-0.33721792697906494
tp1978
a(F-0.1291622817516327
F1.7894854545593262
F-0.3379281759262085
tp1979
a(F-0.14746665954589844
F2.0430843830108643
F-0.33665722608566284
tp1980
a(F-0.17420268058776855
F2.4135000705718994
F-0.34006279706954956
tp1981
a(F-0.20796453952789307
F2.881255626678467
F-0.3376178741455078
tp1982
a(F-0.2605409324169159
F3.609678030014038
F-0.3378050923347473
tp1983
a(F-0.3477652370929718
F4.818131923675537
F-0.33770909905433655
tp1984
a(F-0.5229548215866089
F7.245305061340332
F-0.33818015456199646
tp1985
a(F-1.045619010925293
F14.486583709716797
F-0.33769577741622925
tp1986
a(F-1.04631769657135
F14.496262550354004
F0.00041492152377031744
tp1987
a(F-1.0466439723968506
F14.500783920288086
F0.3388573229312897
tp1988
a(F-1.0457948446273804
F14.489019393920898
F0.6771172881126404
tp1989
a(F-1.047016978263855
F14.505951881408691
F1.0175753831863403
tp1990
a(F-1.0454494953155518
F14.484234809875488
F1.3563169240951538
tp1991
a(F-1.045587420463562
F14.48614501953125
F1.6982886791229248
tp1992
a(F-1.0453921556472778
F14.483440399169922
F2.0415661334991455
tp1993
a(F-1.045988917350769
F14.491707801818848
F2.388779640197754
tp1994
a(F-1.0459486246109009
F14.49114990234375
F2.737381935119629
tp1995
a(F-0.11152378469705582
F0.8550503253936768
F-0.336803138256073
tp1996
a(F-0.12041526287794113
F0.9232210516929626
F-0.3389003574848175
tp1997
a(F-0.13106723129749298
F1.0048894882202148
F-0.3423873484134674
tp1998
a(F-0.140619695186615
F1.0781279802322388
F-0.33936184644699097
tp1999
a(F-0.15173153579235077
F1.1633222103118896
F-0.3364235758781433
tp2000
a(F-0.16570116579532623
F1.2704271078109741
F-0.3353341221809387
tp2001
a(F-0.1834665983915329
F1.4066342115402222
F-0.3362155854701996
tp2002
a(F-0.20429924130439758
F1.5663576126098633
F-0.3357681930065155
tp2003
a(F-0.23226423561573029
F1.7807645797729492
F-0.33824968338012695
tp2004
a(F-0.2645835876464844
F2.0285563468933105
F-0.336219847202301
tp2005
a(F-0.3123277425765991
F2.3946096897125244
F-0.3393760621547699
tp2006
a(F-0.37397149205207825
F2.8672308921813965
F-0.33794108033180237
tp2007
a(F-0.467287540435791
F3.5826828479766846
F-0.3372413218021393
tp2008
a(F-0.6258575320243835
F4.798435211181641
F-0.33829718828201294
tp2009
a(F-0.9394437074661255
F7.202693462371826
F-0.33815908432006836
tp2010
a(F-1.881312370300293
F14.423979759216309
F-0.3382045030593872
tp2011
a(F-1.891032338142395
F14.498501777648926
F0.00041741467430256307
tp2012
a(F-1.8912237882614136
F14.499969482421875
F0.34082165360450745
tp2013
a(F-1.8910011053085327
F14.498262405395508
F0.6815151572227478
tp2014
a(F-1.8919185400009155
F14.50529670715332
F1.0234854221343994
tp2015
a(F-1.8909770250320435
F14.498078346252441
F1.3655598163604736
tp2016
a(F-1.8918323516845703
F14.504634857177734
F1.7104097604751587
tp2017
a(F-1.8914135694503784
F14.501424789428711
F2.0560660362243652
tp2018
a(F-1.8900878429412842
F14.491260528564453
F2.4026880264282227
tp2019
a(F-1.891475796699524
F14.501901626586914
F2.7554476261138916
tp2020
a(F-0.1579951047897339
F0.8334653377532959
F-0.3313409984111786
tp2021
a(F-0.1730010211467743
F0.9126254320144653
F-0.33811312913894653
tp2022
a(F-0.18748833239078522
F0.9890498518943787
F-0.34011104702949524
tp2023
a(F-0.20180794596672058
F1.064589500427246
F-0.33820345997810364
tp2024
a(F-0.21815171837806702
F1.1508071422576904
F-0.335886150598526
tp2025
a(F-0.240525022149086
F1.2688322067260742
F-0.33801451325416565
tp2026
a(F-0.26708680391311646
F1.4089524745941162
F-0.33988824486732483
tp2027
a(F-0.2964804768562317
F1.5640116930007935
F-0.3383699357509613
tp2028
a(F-0.3361511826515198
F1.773285150527954
F-0.3399481177330017
tp2029
a(F-0.3825508654117584
F2.0180554389953613
F-0.3375767469406128
tp2030
a(F-0.44643744826316833
F2.355073928833008
F-0.3368636667728424
tp2031
a(F-0.5404161810874939
F2.8508362770080566
F-0.3391202688217163
tp2032
a(F-0.6735996603965759
F3.5534138679504395
F-0.33758360147476196
tp2033
a(F-0.9019133448600769
F4.7578277587890625
F-0.3385404944419861
tp2034
a(F-1.3569185733795166
F7.158099174499512
F-0.3391774594783783
tp2035
a(F-2.7104973793029785
F14.298579216003418
F-0.33836883306503296
tp2036
a(F-2.7487587928771973
F14.500418663024902
F0.000421335716964677
tp2037
a(F-2.750678777694702
F14.510546684265137
F0.3442286550998688
tp2038
a(F-2.751638889312744
F14.51561164855957
F0.6886492371559143
tp2039
a(F-2.7506375312805176
F14.510330200195312
F1.033321499824524
tp2040
a(F-2.7522366046905518
F14.518765449523926
F1.380171775817871
tp2041
a(F-2.7511515617370605
F14.513042449951172
F1.727249026298523
tp2042
a(F-2.7541298866271973
F14.528752326965332
F2.0790159702301025
tp2043
a(F-2.749917984008789
F14.5065336227417
F2.4274933338165283
tp2044
a(F-2.7533953189849854
F14.52487850189209
F2.785369634628296
tp2045
a(F-0.2084345817565918
F0.8337156772613525
F-0.33566388487815857
tp2046
a(F-0.2251054048538208
F0.9003971815109253
F-0.3378334045410156
tp2047
a(F-0.24508537352085114
F0.9803149104118347
F-0.3414028584957123
tp2048
a(F-0.2631721794605255
F1.0526601076126099
F-0.3386749029159546
tp2049
a(F-0.289792001247406
F1.1591365337371826
F-0.34262824058532715
tp2050
a(F-0.3169437646865845
F1.2677406072616577
F-0.3420271575450897
tp2051
a(F-0.34230923652648926
F1.3691997528076172
F-0.3345073163509369
tp2052
a(F-0.3843704164028168
F1.5374399423599243
F-0.3368596136569977
tp2053
a(F-0.4365690052509308
F1.7462286949157715
F-0.33902689814567566
tp2054
a(F-0.5004783272743225
F2.001858949661255
F-0.33913448452949524
tp2055
a(F-0.5848206281661987
F2.339218854904175
F-0.3388593792915344
tp2056
a(F-0.7011677622795105
F2.8045947551727295
F-0.3378707468509674
tp2057
a(F-0.8822087049484253
F3.5287389755249023
F-0.3395111858844757
tp2058
a(F-1.1719492673873901
F4.68766975402832
F-0.3377986550331116
tp2059
a(F-1.7593215703964233
F7.037095546722412
F-0.3376927375793457
tp2060
a(F-3.5304479598999023
F14.121408462524414
F-0.3384343683719635
tp2061
a(F-3.630396604537964
F14.521191596984863
F0.0004273158556316048
tp2062
a(F-3.627347707748413
F14.508996963500977
F0.34857770800590515
tp2063
a(F-3.631192445755005
F14.524374961853027
F0.6978453397750854
tp2064
a(F-3.631943941116333
F14.527381896972656
F1.0477184057235718
tp2065
a(F-3.6302123069763184
F14.520455360412598
F1.397921085357666
tp2066
a(F-3.6309001445770264
F14.523205757141113
F1.7504833936691284
tp2067
a(F-3.627981424331665
F14.511531829833984
F2.1030120849609375
tp2068
a(F-3.630215644836426
F14.520468711853027
F2.460786819458008
tp2069
a(F-3.630772590637207
F14.522696495056152
F2.8204383850097656
tp2070
a(F-0.25504249334335327
F0.816870391368866
F-0.3342512845993042
tp2071
a(F-0.2784561216831207
F0.8918613791465759
F-0.34009408950805664
tp2072
a(F-0.29994669556617737
F0.9606931209564209
F-0.34003180265426636
tp2073
a(F-0.3232245147228241
F1.03524911403656
F-0.3385111689567566
tp2074
a(F-0.35317692160606384
F1.13118314743042
F-0.3398245573043823
tp2075
a(F-0.385699063539505
F1.2353475093841553
F-0.33872920274734497
tp2076
a(F-0.42542070150375366
F1.3625712394714355
F-0.33832281827926636
tp2077
a(F-0.4777090549468994
F1.5300445556640625
F-0.3407125473022461
tp2078
a(F-0.5399457812309265
F1.7293812036514282
F-0.34123775362968445
tp2079
a(F-0.6125832200050354
F1.9620301723480225
F-0.3378138244152069
tp2080
a(F-0.7182332277297974
F2.3004143238067627
F-0.338678777217865
tp2081
a(F-0.8640907406806946
F2.767578601837158
F-0.3388548791408539
tp2082
a(F-1.081052541732788
F3.4624810218811035
F-0.3385752737522125
tp2083
a(F-1.444996953010559
F4.628150939941406
F-0.33895474672317505
tp2084
a(F-2.164551258087158
F6.932796478271484
F-0.3381193280220032
tp2085
a(F-4.33686637878418
F13.890460014343262
F-0.3383345901966095
tp2086
a(F-4.536031246185303
F14.528361320495605
F0.00043450688826851547
tp2087
a(F-4.539970874786377
F14.540980339050293
F0.355049729347229
tp2088
a(F-4.538696765899658
F14.536898612976074
F0.7098503112792969
tp2089
a(F-4.533955097198486
F14.521711349487305
F1.0644084215164185
tp2090
a(F-4.539548873901367
F14.539628028869629
F1.422620415687561
tp2091
a(F-4.538097858428955
F14.534980773925781
F1.7805051803588867
tp2092
a(F-4.536265850067139
F14.529112815856934
F2.139936685562134
tp2093
a(F-4.53687047958374
F14.531048774719238
F2.5027854442596436
tp2094
a(F-4.535543918609619
F14.526801109313965
F2.8672966957092285
tp2095
a(F-0.3037663400173187
F0.8063573837280273
F-0.33656245470046997
tp2096
a(F-0.3312748968601227
F0.8793796896934509
F-0.3420553207397461
tp2097
a(F-0.35386449098587036
F0.9393445253372192
F-0.3391391634941101
tp2098
a(F-0.38193055987358093
F1.013846755027771
F-0.33815720677375793
tp2099
a(F-0.4193648397922516
F1.1132172346115112
F-0.34113001823425293
tp2100
a(F-0.4554774761199951
F1.209079384803772
F-0.3381710946559906
tp2101
a(F-0.49754002690315247
F1.3207358121871948
F-0.3345077633857727
tp2102
a(F-0.5609564185142517
F1.4890766143798828
F-0.3382355868816376
tp2103
a(F-0.6320939064025879
F1.6779134273529053
F-0.3377178907394409
tp2104
a(F-0.7217022180557251
F1.9157813787460327
F-0.3364618718624115
tp2105
a(F-0.8420587182044983
F2.235271453857422
F-0.33568379282951355
tp2106
a(F-1.0170745849609375
F2.6998565196990967
F-0.3371884226799011
tp2107
a(F-1.2798372507095337
F3.3973686695098877
F-0.33886653184890747
tp2108
a(F-1.7103078365325928
F4.540066242218018
F-0.3391677737236023
tp2109
a(F-2.5642249584198
F6.806816577911377
F-0.33862870931625366
tp2110
a(F-5.1317830085754395
F13.622480392456055
F-0.33845749497413635
tp2111
a(F-5.478338241577148
F14.542423248291016
F0.0004436443850863725
tp2112
a(F-5.480356693267822
F14.54778003692627
F0.36233511567115784
tp2113
a(F-5.479176044464111
F14.544646263122559
F0.7244632244110107
tp2114
a(F-5.478178977966309
F14.541999816894531
F1.0872584581375122
tp2115
a(F-5.477168560028076
F14.539318084716797
F1.4511020183563232
tp2116
a(F-5.481306552886963
F14.550301551818848
F1.8181049823760986
tp2117
a(F-5.477118015289307
F14.539182662963867
F2.1843388080596924
tp2118
a(F-5.477553367614746
F14.540339469909668
F2.554579257965088
tp2119
a(F-5.474300861358643
F14.531704902648926
F2.925751209259033
tp2120
a(F-0.35109424591064453
F0.7906174659729004
F-0.3378872871398926
tp2121
a(F-0.3826652467250824
F0.8617112040519714
F-0.3432013690471649
tp2122
a(F-0.40727004408836365
F0.9171179533004761
F-0.3390358090400696
tp2123
a(F-0.4433861970901489
F0.9984466433525085
F-0.34098756313323975
tp2124
a(F-0.4782855212688446
F1.0770353078842163
F-0.33793821930885315
tp2125
a(F-0.5245424509048462
F1.1811996698379517
F-0.3382768929004669
tp2126
a(F-0.5808273553848267
F1.3079458475112915
F-0.3391934037208557
tp2127
a(F-0.6462227702140808
F1.4552075862884521
F-0.33845004439353943
tp2128
a(F-0.7352861762046814
F1.6557666063308716
F-0.3412329852581024
tp2129
a(F-0.837092936038971
F1.8850219249725342
F-0.33897969126701355
tp2130
a(F-0.9750412106513977
F2.1956629753112793
F-0.33762386441230774
tp2131
a(F-1.1755690574645996
F2.6472249031066895
F-0.33852455019950867
tp2132
a(F-1.46975576877594
F3.309694290161133
F-0.33801910281181335
tp2133
a(F-1.9673405885696411
F4.43018913269043
F-0.3388769328594208
tp2134
a(F-2.9461398124694824
F6.63431453704834
F-0.3379427492618561
tp2135
a(F-5.903205871582031
F13.293233871459961
F-0.33817845582962036
tp2136
a(F-6.4614715576171875
F14.550373077392578
F0.0004545060801319778
tp2137
a(F-6.461960315704346
F14.551473617553711
F0.37109750509262085
tp2138
a(F-6.459298610687256
F14.545480728149414
F0.7418372631072998
tp2139
a(F-6.463043689727783
F14.553914070129395
F1.1141811609268188
tp2140
a(F-6.468459129333496
F14.566108703613281
F1.4885547161102295
tp2141
a(F-6.4669575691223145
F14.562726974487305
F1.863189458847046
tp2142
a(F-6.453981876373291
F14.533507347106934
F2.235722064971924
tp2143
a(F-6.4639892578125
F14.556042671203613
F2.6185176372528076
tp2144
a(F-6.465018272399902
F14.55836009979248
F3.00123929977417
tp2145
a(F-0.3947032690048218
F0.7664423584938049
F-0.3367297649383545
tp2146
a(F-0.42219477891921997
F0.8198258876800537
F-0.3356645405292511
tp2147
a(F-0.4609597623348236
F0.8951005339622498
F-0.34016430377960205
tp2148
a(F-0.49659594893455505
F0.9642995595932007
F-0.33854949474334717
tp2149
a(F-0.5296963453292847
F1.0285744667053223
F-0.33177196979522705
tp2150
a(F-0.586622416973114
F1.1391146183013916
F-0.3353613018989563
tp2151
a(F-0.6547765135765076
F1.2714576721191406
F-0.33896592259407043
tp2152
a(F-0.7268263101577759
F1.411365270614624
F-0.33744701743125916
tp2153
a(F-0.8203045725822449
F1.5928831100463867
F-0.3374677896499634
tp2154
a(F-0.9419435858726501
F1.829084038734436
F-0.33813294768333435
tp2155
a(F-1.1041393280029297
F2.1440389156341553
F-0.33891957998275757
tp2156
a(F-1.325169324874878
F2.5732390880584717
F-0.33827972412109375
tp2157
a(F-1.6603984832763672
F3.224193572998047
F-0.33850961923599243
tp2158
a(F-2.216808557510376
F4.304641246795654
F-0.33849576115608215
tp2159
a(F-3.3270792961120605
F6.4605865478515625
F-0.338310569524765
tp2160
a(F-6.66429328918457
F12.940852165222168
F-0.3384345471858978
tp2161
a(F-7.5023274421691895
F14.568163871765137
F0.0004678072000388056
tp2162
a(F-7.499034881591797
F14.56177043914795
F0.38176119327545166
tp2163
a(F-7.498003005981445
F14.559765815734863
F0.7633636593818665
tp2164
a(F-7.498963832855225
F14.56163215637207
F1.1459946632385254
tp2165
a(F-7.494848728179932
F14.553640365600586
F1.528936505317688
tp2166
a(F-7.504296779632568
F14.571988105773926
F1.916592001914978
tp2167
a(F-7.5030341148376465
F14.569536209106445
F2.3040378093719482
tp2168
a(F-7.496042251586914
F14.555957794189453
F2.6918418407440186
tp2169
a(F-7.5075764656066895
F14.57835578918457
F3.08953595161438
tp2170
a(F-0.44655507802963257
F0.7565787434577942
F-0.34314706921577454
tp2171
a(F-0.47420501708984375
F0.8034248352050781
F-0.3395886719226837
tp2172
a(F-0.5087437033653259
F0.8619421720504761
F-0.33815765380859375
tp2173
a(F-0.552571177482605
F0.9361972212791443
F-0.33931395411491394
tp2174
a(F-0.6024917364120483
F1.0207754373550415
F-0.3399055600166321
tp2175
a(F-0.6580396294593811
F1.1148877143859863
F-0.33884480595588684
tp2176
a(F-0.7255553603172302
F1.2292767763137817
F-0.33832022547721863
tp2177
a(F-0.8081179857254028
F1.3691589832305908
F-0.33794355392456055
tp2178
a(F-0.9118497371673584
F1.5449072122573853
F-0.337889701128006
tp2179
a(F-1.051216959953308
F1.7810308933258057
F-0.33989864587783813
tp2180
a(F-1.2123658657073975
F2.05405855178833
F-0.3351976275444031
tp2181
a(F-1.4729925394058228
F2.49562668800354
F-0.33868786692619324
tp2182
a(F-1.8451257944107056
F3.1261160373687744
F-0.338827908039093
tp2183
a(F-2.4601218700408936
F4.168076992034912
F-0.3383577764034271
tp2184
a(F-3.6965489387512207
F6.262901306152344
F-0.33856600522994995
tp2185
a(F-7.398944854736328
F12.5357084274292
F-0.33844247460365295
tp2186
a(F-8.604503631591797
F14.57823371887207
F0.0004832714912481606
tp2187
a(F-8.613744735717773
F14.593891143798828
F0.39497795701026917
tp2188
a(F-8.610596656799316
F14.588557243347168
F0.7896117568016052
tp2189
a(F-8.612850189208984
F14.592376708984375
F1.1855578422546387
tp2190
a(F-8.602957725524902
F14.575614929199219
F1.5807706117630005
tp2191
a(F-8.607396125793457
F14.583134651184082
F1.9800944328308105
tp2192
a(F-8.60285758972168
F14.575446128845215
F2.3795228004455566
tp2193
a(F-8.601664543151855
F14.573423385620117
F2.7822391986846924
tp2194
a(F-8.610158920288086
F14.58781623840332
F3.1915314197540283
tp2195
a(F-0.4813496172428131
F0.7175917625427246
F-0.33750155568122864
tp2196
a(F-0.5194679498672485
F0.774418294429779
F-0.33943429589271545
tp2197
a(F-0.5634095072746277
F0.8399259448051453
F-0.3417072892189026
tp2198
a(F-0.6033908724784851
F0.8995298147201538
F-0.33808204531669617
tp2199
a(F-0.6542512774467468
F0.9753520488739014
F-0.33679190278053284
tp2200
a(F-0.7168375849723816
F1.0686551332473755
F-0.33680570125579834
tp2201
a(F-0.7904781103134155
F1.1784378290176392
F-0.33632344007492065
tp2202
a(F-0.8750177025794983
F1.3044686317443848
F-0.3338843882083893
tp2203
a(F-0.997245192527771
F1.4866843223571777
F-0.33718129992485046
tp2204
a(F-1.1491529941558838
F1.7131471633911133
F-0.33903518319129944
tp2205
a(F-1.3407105207443237
F1.9987194538116455
F-0.3382300138473511
tp2206
a(F-1.6058554649353027
F2.3939952850341797
F-0.3369111716747284
tp2207
a(F-2.029794931411743
F3.026000499725342
F-0.340106725692749
tp2208
a(F-2.6865758895874023
F4.005123615264893
F-0.3371541500091553
tp2209
a(F-4.044957160949707
F6.030186653137207
F-0.3380420207977295
tp2210
a(F-8.107807159423828
F12.08704662322998
F-0.33839842677116394
tp2211
a(F-9.7907133102417
F14.595908164978027
F0.0005017524817958474
tp2212
a(F-9.788878440856934
F14.59317398071289
F0.4095657765865326
tp2213
a(F-9.785801887512207
F14.588586807250977
F0.818816602230072
tp2214
a(F-9.789982795715332
F14.594820022583008
F1.2296106815338135
tp2215
a(F-9.798184394836426
F14.607047080993652
F1.64276921749115
tp2216
a(F-9.7893648147583
F14.59389877319336
F2.054842233657837
tp2217
a(F-9.786632537841797
F14.589825630187988
F2.4699621200561523
tp2218
a(F-9.794600486755371
F14.601703643798828
F2.8907370567321777
tp2219
a(F-9.791023254394531
F14.5963716506958
F3.311508893966675
tp2220
a(F-0.5220943093299866
F0.688935399055481
F-0.3376323878765106
tp2221
a(F-0.5600679516792297
F0.7390439510345459
F-0.3375341296195984
tp2222
a(F-0.6065006852149963
F0.8003147840499878
F-0.3392668068408966
tp2223
a(F-0.6616848707199097
F0.8731337189674377
F-0.3419436812400818
tp2224
a(F-0.7133309841156006
F0.9412838816642761
F-0.33867892622947693
tp2225
a(F-0.7871757745742798
F1.0387266874313354
F-0.3411225378513336
tp2226
a(F-0.8670292496681213
F1.144098162651062
F-0.3402366042137146
tp2227
a(F-0.9626267552375793
F1.2702449560165405
F-0.3387795686721802
tp2228
a(F-1.0810887813568115
F1.4265629053115845
F-0.33713430166244507
tp2229
a(F-1.2460253238677979
F1.6442067623138428
F-0.33905789256095886
tp2230
a(F-1.4571853876113892
F1.9228453636169434
F-0.3390564024448395
tp2231
a(F-1.7440067529678345
F2.301323652267456
F-0.33747154474258423
tp2232
a(F-2.1859428882598877
F2.8844854831695557
F-0.33781731128692627
tp2233
a(F-2.923938751220703
F3.858315944671631
F-0.33843687176704407
tp2234
a(F-4.392759799957275
F5.796515464782715
F-0.3385900557041168
tp2235
a(F-8.787848472595215
F11.596104621887207
F-0.33828872442245483
tp2236
a(F-11.070261001586914
F14.607887268066406
F0.0005232546827755868
tp2237
a(F-11.071614265441895
F14.609672546386719
F0.42724964022636414
tp2238
a(F-11.071043968200684
F14.608920097351074
F0.8543952703475952
tp2239
a(F-11.066386222839355
F14.602773666381836
F1.2819513082504272
tp2240
a(F-11.067960739135742
F14.604851722717285
F1.7115066051483154
tp2241
a(F-11.068324089050293
F14.605331420898438
F2.1428210735321045
tp2242
a(F-11.072064399719238
F14.610267639160156
F2.5773041248321533
tp2243
a(F-11.069727897644043
F14.607183456420898
F3.013275384902954
tp2244
a(F-11.068132400512695
F14.605077743530273
F3.4526472091674805
tp2245
a(F-0.5576334595680237
F0.653860867023468
F-0.3356553018093109
tp2246
a(F-0.5993282198905945
F0.7027506232261658
F-0.3361949920654297
tp2247
a(F-0.6533872485160828
F0.7661383152008057
F-0.3401968479156494
tp2248
a(F-0.7002382278442383
F0.8210741281509399
F-0.33682066202163696
tp2249
a(F-0.7663530111312866
F0.8985978364944458
F-0.3386690318584442
tp2250
a(F-0.8366537094116211
F0.9810299277305603
F-0.33746907114982605
tp2251
a(F-0.9293890595436096
F1.0897680521011353
F-0.33946454524993896
tp2252
a(F-1.032160758972168
F1.210274577140808
F-0.3381085991859436
tp2253
a(F-1.1694891452789307
F1.3713008165359497
F-0.33945897221565247
tp2254
a(F-1.3350552320480347
F1.5654375553131104
F-0.3381393551826477
tp2255
a(F-1.566652536392212
F1.8370002508163452
F-0.33929648995399475
tp2256
a(F-1.8849265575408936
F2.2101967334747314
F-0.3394946753978729
tp2257
a(F-2.354844331741333
F2.7612054347991943
F-0.33873090147972107
tp2258
a(F-3.132274866104126
F3.672792434692383
F-0.3374572992324829
tp2259
a(F-4.7208333015441895
F5.535478591918945
F-0.3386920392513275
tp2260
a(F-9.45279312133789
F11.084004402160645
F-0.338699609041214
tp2261
a(F-12.467296600341797
F14.618701934814453
F0.0005485005676746368
tp2262
a(F-12.479077339172363
F14.632515907287598
F0.44823193550109863
tp2263
a(F-12.479011535644531
F14.632438659667969
F0.8963961601257324
tp2264
a(F-12.471474647521973
F14.623600959777832
F1.3447237014770508
tp2265
a(F-12.473490715026855
F14.625965118408203
F1.7953474521636963
tp2266
a(F-12.473416328430176
F14.62587833404541
F2.2477033138275146
tp2267
a(F-12.471620559692383
F14.623771667480469
F2.7021501064300537
tp2268
a(F-12.479939460754395
F14.633526802062988
F3.162014961242676
tp2269
a(F-12.471264839172363
F14.6233549118042
F3.6210782527923584
tp2270
a(F-0.5959345102310181
F0.6222743391990662
F-0.3365345895290375
tp2271
a(F-0.6472595930099487
F0.6758679747581482
F-0.3406367599964142
tp2272
a(F-0.6880428791046143
F0.7184538841247559
F-0.3360946774482727
tp2273
a(F-0.7409225702285767
F0.7736707925796509
F-0.3343583941459656
tp2274
a(F-0.8154995441436768
F0.8515440821647644
F-0.3381091058254242
tp2275
a(F-0.900142252445221
F0.939927875995636
F-0.3406323492527008
tp2276
a(F-0.9881926774978638
F1.0318700075149536
F-0.33862966299057007
tp2277
a(F-1.0967347621917725
F1.1452096700668335
F-0.33705204725265503
tp2278
a(F-1.2419641017913818
F1.2968580722808838
F-0.33821016550064087
tp2279
a(F-1.4157949686050415
F1.4783720970153809
F-0.3364212214946747
tp2280
a(F-1.6640843152999878
F1.737635612487793
F-0.33811816573143005
tp2281
a(F-2.00285267829895
F2.0913772583007812
F-0.3384340703487396
tp2282
a(F-2.493673801422119
F2.6038923263549805
F-0.33652612566947937
tp2283
a(F-3.3441107273101807
F3.4919180870056152
F-0.3380073308944702
tp2284
a(F-5.023103713989258
F5.245121002197266
F-0.3380998373031616
tp2285
a(F-10.087211608886719
F10.533059120178223
F-0.3390877842903137
tp2286
a(F-14.01480770111084
F14.634251594543457
F0.0005784668028354645
tp2287
a(F-14.017067909240723
F14.636612892150879
F0.4723500609397888
tp2288
a(F-14.025132179260254
F14.64503288269043
F0.9451772570610046
tp2289
a(F-14.027204513549805
F14.647196769714355
F1.418968915939331
tp2290
a(F-14.013195037841797
F14.632568359375
F1.8922747373580933
tp2291
a(F-14.026039123535156
F14.645979881286621
F2.3712377548217773
tp2292
a(F-14.016816139221191
F14.636348724365234
F2.8491969108581543
tp2293
a(F-14.03637409210205
F14.656771659851074
F3.3365132808685303
tp2294
a(F-14.022541999816895
F14.642328262329102
F3.81980037689209
tp2295
a(F-0.6329600811004639
F0.5889222025871277
F-0.3376896381378174
tp2296
a(F-0.6767246127128601
F0.6296418309211731
F-0.3364613652229309
tp2297
a(F-0.7343286275863647
F0.6832380890846252
F-0.33888065814971924
tp2298
a(F-0.7937441468238831
F0.7385197877883911
F-0.33839982748031616
tp2299
a(F-0.8612151741981506
F0.801296591758728
F-0.33733004331588745
tp2300
a(F-0.9425170421600342
F0.8769419193267822
F-0.3369567394256592
tp2301
a(F-1.0363986492156982
F0.9642917513847351
F-0.33552154898643494
tp2302
a(F-1.1633400917053223
F1.0824013948440552
F-0.3377631604671478
tp2303
a(F-1.3171159029006958
F1.225478172302246
F-0.3388533592224121
tp2304
a(F-1.5092071294784546
F1.4042048454284668
F-0.33879896998405457
tp2305
a(F-1.7633014917373657
F1.6406207084655762
F-0.33847764134407043
tp2306
a(F-2.115922689437866
F1.9687083959579468
F-0.3377808630466461
tp2307
a(F-2.6473379135131836
F2.4631507396698
F-0.3375193774700165
tp2308
a(F-3.539808988571167
F3.2935285568237305
F-0.3380146324634552
tp2309
a(F-5.326601028442383
F4.956005573272705
F-0.33871403336524963
tp2310
a(F-10.663935661315918
F9.921998023986816
F-0.338663786649704
tp2311
a(F-15.767436981201172
F14.670426368713379
F0.0006148407119326293
tp2312
a(F-15.761682510375977
F14.665071487426758
F0.5017871856689453
tp2313
a(F-15.75992202758789
F14.663434028625488
F1.0033918619155884
tp2314
a(F-15.767660140991211
F14.670633316040039
F1.5068819522857666
tp2315
a(F-15.767374992370605
F14.670368194580078
F2.011484146118164
tp2316
a(F-15.76970100402832
F14.672532081604004
F2.518684148788452
tp2317
a(F-15.756688117980957
F14.66042423248291
F3.025855779647827
tp2318
a(F-15.761154174804688
F14.664580345153809
F3.5394530296325684
tp2319
a(F-15.763079643249512
F14.66637134552002
F4.056628227233887
tp2320
a(F-0.6772158741950989
F0.560901939868927
F-0.34346023201942444
tp2321
a(F-0.7042884230613708
F0.583324670791626
F-0.33287540078163147
tp2322
a(F-0.7675117254257202
F0.6356891989707947
F-0.3367047905921936
tp2323
a(F-0.8380456566810608
F0.6941086649894714
F-0.33964499831199646
tp2324
a(F-0.904007613658905
F0.7487414479255676
F-0.3366071581840515
tp2325
a(F-0.9829751253128052
F0.8141460418701172
F-0.3340684175491333
tp2326
a(F-1.1062002182006836
F0.9162067770957947
F-0.34043580293655396
tp2327
a(F-1.2313601970672607
F1.0198701620101929
F-0.33985885977745056
tp2328
a(F-1.382918119430542
F1.1453975439071655
F-0.3382144868373871
tp2329
a(F-1.5932470560073853
F1.3196018934249878
F-0.34000420570373535
tp2330
a(F-1.8606669902801514
F1.5410915613174438
F-0.33953142166137695
tp2331
a(F-2.2296481132507324
F1.8466991186141968
F-0.33836039900779724
tp2332
a(F-2.7813498973846436
F2.3036441802978516
F-0.3370954394340515
tp2333
a(F-3.723069429397583
F3.083620548248291
F-0.33795955777168274
tp2334
a(F-5.593697547912598
F4.632962226867676
F-0.33813485503196716
tp2335
a(F-11.20824146270752
F9.283190727233887
F-0.33837372064590454
tp2336
a(F-17.74199104309082
F14.694746971130371
F0.0006576756713911891
tp2337
a(F-17.726957321166992
F14.682295799255371
F0.5364869236946106
tp2338
a(F-17.742002487182617
F14.694757461547852
F1.073809027671814
tp2339
a(F-17.74104881286621
F14.693967819213867
F1.611755609512329
tp2340
a(F-17.730947494506836
F14.685602188110352
F2.1502902507781982
tp2341
a(F-17.7401180267334
F14.693196296691895
F2.693485736846924
tp2342
a(F-17.737363815307617
F14.69091510772705
F3.238025665283203
tp2343
a(F-17.74104881286621
F14.693967819213867
F3.7873494625091553
tp2344
a(F-17.753995895385742
F14.704690933227539
F4.343383312225342
tp2345
a(F-0.6878330111503601
F0.5058255791664124
F-0.33348584175109863
tp2346
a(F-0.753613293170929
F0.554199755191803
F-0.34050601720809937
tp2347
a(F-0.8043537139892578
F0.5915137529373169
F-0.3373311161994934
tp2348
a(F-0.8700971603393555
F0.6398608684539795
F-0.3371090292930603
tp2349
a(F-0.9496873617172241
F0.6983907222747803
F-0.33804693818092346
tp2350
a(F-1.0493226051330566
F0.7716615200042725
F-0.3409156799316406
tp2351
a(F-1.1610052585601807
F0.8537917733192444
F-0.34157082438468933
tp2352
a(F-1.2792247533798218
F0.9407292604446411
F-0.3375245928764343
tp2353
a(F-1.4400609731674194
F1.0590065717697144
F-0.33668339252471924
tp2354
a(F-1.6649622917175293
F1.2243969440460205
F-0.33966487646102905
tp2355
a(F-1.9492545127868652
F1.4334625005722046
F-0.3400360345840454
tp2356
a(F-2.3272392749786377
F1.7114287614822388
F-0.33762088418006897
tp2357
a(F-2.9225378036499023
F2.149205446243286
F-0.33861207962036133
tp2358
a(F-3.8895297050476074
F2.8603217601776123
F-0.3375248908996582
tp2359
a(F-5.84651517868042
F4.299469470977783
F-0.3378571569919586
tp2360
a(F-11.716192245483398
F8.615972518920898
F-0.3381354808807373
tp2361
a(F-20.011587142944336
F14.716323852539062
F0.0007091466104611754
tp2362
a(F-20.017702102661133
F14.720820426940918
F0.5791409015655518
tp2363
a(F-20.014305114746094
F14.71832275390625
F1.1580039262771606
tp2364
a(F-20.01750373840332
F14.720674514770508
F1.7385008335113525
tp2365
a(F-20.01883888244629
F14.72165584564209
F2.3208608627319336
tp2366
a(F-20.01433753967285
F14.71834659576416
F2.904989004135132
tp2367
a(F-20.010848999023438
F14.715781211853027
F3.4922218322753906
tp2368
a(F-20.00872039794922
F14.714216232299805
F4.083386421203613
tp2369
a(F-20.017452239990234
F14.720636367797852
F4.681509494781494
tp2370
a(F-0.9034566879272461
F0.5873315930366516
F-0.3363425135612488
tp2371
a(F-0.9872370362281799
F0.6417967081069946
F-0.3376677632331848
tp2372
a(F-1.0735996961593628
F0.6979405283927917
F-0.33515995740890503
tp2373
a(F-1.189374566078186
F0.7732051014900208
F-0.33623045682907104
tp2374
a(F-1.331610083580017
F0.8656715154647827
F-0.337603896856308
tp2375
a(F-1.5038756132125854
F0.9776602983474731
F-0.33785051107406616
tp2376
a(F-1.7171554565429688
F1.1163121461868286
F-0.33661049604415894
tp2377
a(F-2.0203092098236084
F1.3133906126022339
F-0.3386461138725281
tp2378
a(F-2.4266884326934814
F1.5775752067565918
F-0.33827826380729675
tp2379
a(F-3.0226781368255615
F1.9650243520736694
F-0.33651626110076904
tp2380
a(F-4.046158790588379
F2.630382776260376
F-0.3373831808567047
tp2381
a(F-6.0982208251953125
F3.9644155502319336
F-0.33861875534057617
tp2382
a(F-12.207308769226074
F7.935895919799805
F-0.3385290801525116
tp2383
a(F-22.684415817260742
F14.74699878692627
F0.000772420724388212
tp2384
a(F-22.694345474243164
F14.753454208374023
F0.6308984756469727
tp2385
a(F-22.69019317626953
F14.750755310058594
F1.2614775896072388
tp2386
a(F-22.694616317749023
F14.753630638122559
F1.893911361694336
tp2387
a(F-22.68443489074707
F14.7470121383667
F2.5270278453826904
tp2388
a(F-22.694002151489258
F14.753231048583984
F3.165090799331665
tp2389
a(F-22.693675994873047
F14.753019332885742
F3.805510997772217
tp2390
a(F-22.686203002929688
F14.748160362243652
F4.44871711730957
tp2391
a(F-22.694995880126953
F14.753876686096191
F5.100104331970215
tp2392
a(F-1.0344221591949463
F0.5906198620796204
F-0.34158068895339966
tp2393
a(F-1.128146767616272
F0.644133448600769
F-0.3400186598300934
tp2394
a(F-1.2354810237884521
F0.7054176330566406
F-0.3371955454349518
tp2395
a(F-1.378114104270935
F0.7868562936782837
F-0.3373206555843353
tp2396
a(F-1.55276358127594
F0.8865751624107361
F-0.33677926659584045
tp2397
a(F-1.7799702882766724
F1.016302466392517
F-0.3368667662143707
tp2398
a(F-2.101685047149658
F1.1999906301498413
F-0.34011298418045044
tp2399
a(F-2.516798257827759
F1.4370062351226807
F-0.3387161195278168
tp2400
a(F-3.1445705890655518
F1.795442819595337
F-0.3379892110824585
tp2401
a(F-4.205758094787598
F2.4013447761535645
F-0.3385728597640991
tp2402
a(F-6.3060383796691895
F3.6005334854125977
F-0.3380584716796875
tp2403
a(F-12.629940032958984
F7.211266040802002
F-0.3381463289260864
tp2404
a(F-23.970867156982422
F13.68655014038086
F0.0007880203775130212
tp2405
a(F-23.970624923706055
F13.68641185760498
F0.6433518528938293
tp2406
a(F-53.534149169921875
F30.566179275512695
F2.8734233379364014
tp2407
a(F-53.514068603515625
F30.55471420288086
F4.311537265777588
tp2408
a(F-53.51914596557617
F30.557613372802734
F5.7559709548950195
tp2409
a(F-53.52264404296875
F30.55961036682129
F7.206759452819824
tp2410
a(F-53.52434539794922
F30.56058120727539
F8.665364265441895
tp2411
a(F-53.524871826171875
F30.560880661010742
F10.133418083190918
tp2412
a(F-53.525238037109375
F30.56109046936035
F11.61274528503418
tp2413
a(F-1.2715989351272583
F0.6318399906158447
F-0.33654171228408813
tp2414
a(F-1.424598217010498
F0.7078632712364197
F-0.33813732862472534
tp2415
a(F-1.613484263420105
F0.8017181158065796
F-0.3393498957157135
tp2416
a(F-1.8336224555969238
F0.9111016988754272
F-0.33651024103164673
tp2417
a(F-2.1713693141937256
F1.0789234638214111
F-0.3407471776008606
tp2418
a(F-2.5919911861419678
F1.2879247665405273
F-0.338270366191864
tp2419
a(F-3.2392189502716064
F1.6095232963562012
F-0.3376173973083496
tp2420
a(F-4.345340728759766
F2.15913987159729
F-0.3392147123813629
tp2421
a(F-6.508697986602783
F3.2340824604034424
F-0.33835479617118835
tp2422
a(F-13.03141975402832
F6.475132942199707
F-0.33832815289497375
tp2423
a(F-56.76753234863281
F28.207002639770508
F0.0018096587155014277
tp2424
a(F-56.761741638183594
F28.204126358032227
F1.4772971868515015
tp2425
a(F-56.77033996582031
F28.208398818969727
F2.954834461212158
tp2426
a(F-56.75568771362305
F28.20111846923828
F4.434212684631348
tp2427
a(F-56.763160705566406
F28.204832077026367
F5.919962406158447
tp2428
a(F-56.75540542602539
F28.200979232788086
F7.410588264465332
tp2429
a(F-56.75407791137695
F28.200319290161133
F8.909955978393555
tp2430
a(F-56.77576446533203
F28.21109390258789
F10.423325538635254
tp2431
a(F-56.75783157348633
F28.202184677124023
F11.941121101379395
tp2432
a(F-1.3092015981674194
F0.5589457750320435
F-0.3373955488204956
tp2433
a(F-1.451173186302185
F0.6195586323738098
F-0.33540078997612
tp2434
a(F-1.6508820056915283
F0.7048215866088867
F-0.338098406791687
tp2435
a(F-1.9081721305847168
F0.8146680593490601
F-0.34099656343460083
tp2436
a(F-2.221287250518799
F0.948348343372345
F-0.33942776918411255
tp2437
a(F-2.649437427520752
F1.131141185760498
F-0.33668842911720276
tp2438
a(F-3.3250889778137207
F1.4196014404296875
F-0.33746740221977234
tp2439
a(F-4.441112518310547
F1.896072506904602
F-0.33758777379989624
tp2440
a(F-6.6739020347595215
F2.8493316173553467
F-0.337833046913147
tp2441
a(F-13.38861083984375
F5.716084957122803
F-0.3384745419025421
tp2442
a(F-66.4111557006836
F28.353336334228516
F0.002061492530629039
tp2443
a(F-66.39851379394531
F28.34794044494629
F1.682730793952942
tp2444
a(F-66.4169692993164
F28.355819702148438
F3.3661603927612305
tp2445
a(F-66.4090805053711
F28.35245132446289
F5.052178382873535
tp2446
a(F-66.40814971923828
F28.352054595947266
F6.744004726409912
tp2447
a(F-66.40552520751953
F28.350934982299805
F8.442940711975098
tp2448
a(F-66.41606140136719
F28.355432510375977
F10.153030395507812
tp2449
a(F-66.4078369140625
F28.35192108154297
F11.871530532836914
tp2450
a(F-1.3483054637908936
F0.48586246371269226
F-0.3396822214126587
tp2451
a(F-1.4983128309249878
F0.5399177074432373
F-0.3385314345359802
tp2452
a(F-1.6926162242889404
F0.6099349856376648
F-0.3388732373714447
tp2453
a(F-1.9299582242965698
F0.6954612731933594
F-0.33715689182281494
tp2454
a(F-2.2747952938079834
F0.8197234869003296
F-0.3398103713989258
tp2455
a(F-2.725916862487793
F0.9822853207588196
F-0.338640421628952
tp2456
a(F-3.400857448577881
F1.225500464439392
F-0.3374183475971222
tp2457
a(F-4.549998760223389
F1.6395939588546753
F-0.3381098806858063
tp2458
a(F-6.839065074920654
F2.4644601345062256
F-0.3384314477443695
tp2459
a(F-13.685539245605469
F4.931589603424072
F-0.33822372555732727
tp2460
a(F-101.08348083496094
F36.42547607421875
F0.0030674156732857227
tp2461
a(F-101.07451629638672
F36.422245025634766
F2.5040881633758545
tp2462
a(F-101.0746841430664
F36.422306060791016
F5.007833003997803
tp2463
a(F-101.07939910888672
F36.42400360107422
F7.51736307144165
tp2464
a(F-101.07109832763672
F36.42101287841797
F10.034024238586426
tp2465
a(F-101.06531524658203
F36.41893005371094
F12.561552047729492
tp2466
a(F-101.07745361328125
F36.42330551147461
F15.105270385742188
tp2467
a(F-101.07699584960938
F36.42313766479492
F17.664094924926758
tp2468
a(F-1.2358829975128174
F0.36641138792037964
F-0.3373934328556061
tp2469
a(F-1.3661038875579834
F0.4050189256668091
F-0.3377159833908081
tp2470
a(F-1.5175611972808838
F0.4499225914478302
F-0.336454302072525
tp2471
a(F-1.7398226261138916
F0.5158180594444275
F-0.3417961299419403
tp2472
a(F-1.9759047031402588
F0.5858110785484314
F-0.3387143015861511
tp2473
a(F-2.3047873973846436
F0.6833173632621765
F-0.3378380835056305
tp2474
a(F-2.7682690620422363
F0.8207291960716248
F-0.3374565541744232
tp2475
a(F-3.474411964416504
F1.0300846099853516
F-0.3382555842399597
tp2476
a(F-4.643657684326172
F1.376739501953125
F-0.33860254287719727
tp2477
a(F-6.9713521003723145
F2.0668482780456543
F-0.33851224184036255
tp2478
a(F-13.953625679016113
F4.136934757232666
F-0.3383861780166626
tp2479
a(F-101.0574951171875
F29.961261749267578
F0.0030091535300016403
tp2480
a(F-101.07039642333984
F29.965087890625
F2.457057476043701
tp2481
a(F-101.0594711303711
F29.96184730529785
F4.913238525390625
tp2482
a(F-101.07669830322266
F29.966955184936523
F7.376278877258301
tp2483
a(F-101.06834411621094
F29.9644775390625
F9.845702171325684
tp2484
a(F-101.0810775756836
F29.96825408935547
F12.328052520751953
tp2485
a(F-101.07408905029297
F29.966182708740234
F14.821681022644043
tp2486
a(F-101.08384704589844
F29.96907615661621
F17.334217071533203
tp2487
a(F-1.2572563886642456
F0.2951449751853943
F-0.33801624178886414
tp2488
a(F-1.3715620040893555
F0.3219785690307617
F-0.33391642570495605
tp2489
a(F-1.550168752670288
F0.3639070689678192
F-0.338464617729187
tp2490
a(F-1.7669882774353027
F0.41480615735054016
F-0.3418615162372589
tp2491
a(F-2.0087926387786865
F0.47157052159309387
F-0.3391228914260864
tp2492
a(F-2.348033905029297
F0.55120849609375
F-0.3389506936073303
tp2493
a(F-2.7960987091064453
F0.6563931107521057
F-0.335673063993454
tp2494
a(F-3.53611421585083
F0.8301141262054443
F-0.3390348553657532
tp2495
a(F-4.729706764221191
F1.1103137731552124
F-0.3396398425102234
tp2496
a(F-7.0790791511535645
F1.6618365049362183
F-0.3385232985019684
tp2497
a(F-14.1610107421875
F3.324342727661133
F-0.33820047974586487
tp2498
a(F-101.07282257080078
F23.727169036865234
F0.002963907551020384
tp2499
a(F-101.06671905517578
F23.72573471069336
F2.4196574687957764
tp2500
a(F-101.07740783691406
F23.72824478149414
F4.839487075805664
tp2501
a(F-101.05926513671875
F23.72398567199707
F7.2630133628845215
tp2502
a(F-101.08580780029297
F23.73021697998047
F9.697864532470703
tp2503
a(F-101.0733413696289
F23.727291107177734
F12.139914512634277
tp2504
a(F-101.06858825683594
F23.72617530822754
F14.595810890197754
tp2505
a(F-101.06281280517578
F23.72481918334961
F17.067434310913086
tp2506
a(F-101.07836151123047
F23.72846794128418
F19.561901092529297
tp2507
a(F-1.2610684633255005
F0.2202821969985962
F-0.3350659906864166
tp2508
a(F-1.405289649963379
F0.24547462165355682
F-0.3381163477897644
tp2509
a(F-1.5820070505142212
F0.2763434648513794
F-0.34136638045310974
tp2510
a(F-1.779067873954773
F0.3107658326625824
F-0.3401630222797394
tp2511
a(F-2.0271382331848145
F0.35409849882125854
F-0.33820757269859314
tp2512
a(F-2.386862277984619
F0.4169347882270813
F-0.34051600098609924
tp2513
a(F-2.855482816696167
F0.49879294633865356
F-0.33878293633461
tp2514
a(F-3.5836944580078125
F0.6259962916374207
F-0.33956822752952576
tp2515
a(F-4.767322540283203
F0.8327512741088867
F-0.3383272588253021
tp2516
a(F-7.1479878425598145
F1.2486034631729126
F-0.33781084418296814
tp2517
a(F-14.327886581420898
F2.502781391143799
F-0.33817392587661743
tp2518
a(F-101.06570434570312
F17.6540584564209
F0.0029289505910128355
tp2519
a(F-101.07819366455078
F17.656240463256836
F2.3915598392486572
tp2520
a(F-101.0838851928711
F17.65723419189453
F4.783052921295166
tp2521
a(F-101.0710678100586
F17.654996871948242
F7.178696632385254
tp2522
a(F-101.06560516357422
F17.654041290283203
F9.582246780395508
tp2523
a(F-101.08503723144531
F17.65743637084961
F11.998968124389648
tp2524
a(F-101.07199096679688
F17.6551570892334
F14.42516803741455
tp2525
a(F-101.0571517944336
F17.652565002441406
F16.866382598876953
tp2526
a(F-101.06304168701172
F17.653593063354492
F19.32961654663086
tp2527
a(F-1.2791532278060913
F0.14813093841075897
F-0.33703911304473877
tp2528
a(F-1.4066554307937622
F0.16289618611335754
F-0.3356248140335083
tp2529
a(F-1.5715712308883667
F0.18199408054351807
F-0.33628880977630615
tp2530
a(F-1.7900980710983276
F0.2073003351688385
F-0.33941999077796936
tp2531
a(F-2.049699544906616
F0.23736320436000824
F-0.3391222059726715
tp2532
a(F-2.3832147121429443
F0.27598556876182556
F-0.337162584066391
tp2533
a(F-2.885342836380005
F0.33413395285606384
F-0.3394731879234314
tp2534
a(F-3.6042497158050537
F0.41738617420196533
F-0.33867019414901733
tp2535
a(F-4.821709156036377
F0.5583727359771729
F-0.3393356502056122
tp2536
a(F-7.206115245819092
F0.834496259689331
F-0.33772018551826477
tp2537
a(F-14.453067779541016
F1.6737216711044312
F-0.33828601241111755
tp2538
a(F-101.08087158203125
F11.705558776855469
F0.0029049806762486696
tp2539
a(F-101.07850646972656
F11.70528507232666
F2.3716390132904053
tp2540
a(F-101.05786895751953
F11.702895164489746
F4.741976737976074
tp2541
a(F-101.06626892089844
F11.70386791229248
F7.1185407638549805
tp2542
a(F-101.06970977783203
F11.704266548156738
F9.502787590026855
tp2543
a(F-101.07637786865234
F11.705039024353027
F11.897966384887695
tp2544
a(F-101.07234191894531
F11.704570770263672
F14.305017471313477
tp2545
a(F-101.06385040283203
F11.703587532043457
F16.72694969177246
tp2546
a(F-101.06432342529297
F11.703642845153809
F19.168792724609375
tp2547
a(F-1.2806401252746582
F0.0739063173532486
F-0.335748553276062
tp2548
a(F-1.4248852729797363
F0.08223076909780502
F-0.3382793962955475
tp2549
a(F-1.5817866325378418
F0.09128560870885849
F-0.3367871642112732
tp2550
a(F-1.7917571067810059
F0.10340310633182526
F-0.3380407392978668
tp2551
a(F-2.062467575073242
F0.11902591586112976
F-0.33953332901000977
tp2552
a(F-2.418088912963867
F0.13954898715019226
F-0.34039074182510376
tp2553
a(F-2.8850009441375732
F0.1664946973323822
F-0.33774062991142273
tp2554
a(F-3.617177724838257
F0.2087489366531372
F-0.33819037675857544
tp2555
a(F-4.840884208679199
F0.279369592666626
F-0.3389865458011627
tp2556
a(F-7.269994258880615
F0.41955462098121643
F-0.3390152156352997
tp2557
a(F-14.535388946533203
F0.838843822479248
F-0.33851659297943115
tp2558
a(F-101.07989501953125
F5.8333659172058105
F0.0028904692735522985
tp2559
a(F-101.0714340209961
F5.8328776359558105
F2.359649419784546
tp2560
a(F-101.05992126464844
F5.832213401794434
F4.718430042266846
tp2561
a(F-101.06472778320312
F5.832490921020508
F7.08294153213501
tp2562
a(F-101.07516479492188
F5.83309268951416
F9.45591926574707
tp2563
a(F-101.05391693115234
F5.83186674118042
F11.836014747619629
tp2564
a(F-101.06831359863281
F5.83269739151001
F14.233128547668457
tp2565
a(F-101.06182098388672
F5.832322597503662
F16.643218994140625
tp2566
a(F-101.06063842773438
F5.832254886627197
F19.072526931762695
tp2567
a(F-1.287032961845398
F3.415257424421725e-06
F-0.33686405420303345
tp2568
a(F-1.430153489112854
F3.7950408113829326e-06
F-0.33896613121032715
tp2569
a(F-1.5871312618255615
F4.211595296510495e-06
F-0.3373637795448303
tp2570
a(F-1.7942274808883667
F4.7611438276362605e-06
F-0.33794450759887695
tp2571
a(F-2.0680949687957764
F5.487875569087919e-06
F-0.33989420533180237
tp2572
a(F-2.4119491577148438
F6.400323854904855e-06
F-0.33896246552467346
tp2573
a(F-2.8965251445770264
F7.686189746891614e-06
F-0.3385264575481415
tp2574
a(F-3.6256754398345947
F9.621055141906254e-06
F-0.3384217917919159
tp2575
a(F-4.839066982269287
F1.2840899216826074e-05
F-0.33829641342163086
tp2576
a(F-7.265436172485352
F1.9279488697065972e-05
F-0.3382398784160614
tp2577
a(F-14.552361488342285
F3.86159990739543e-05
F-0.3383488953113556
tp2578
a(F-48.86307907104492
F0.0001296625705435872
F0.0013949620770290494
tp2579
a(F-48.860206604003906
F0.00012965494534000754
F1.1388128995895386
tp2580
a(F-48.87587356567383
F0.000129696520161815
F2.278196096420288
tp2581
a(F-48.86289978027344
F0.00012966209033038467
F3.41878080368042
tp2582
a(F-48.87297821044922
F0.0001296888367505744
F4.564635276794434
tp2583
a(F-48.8731575012207
F0.00012968930241186172
F5.7147955894470215
tp2584
a(F-48.87731170654297
F0.00012970033276360482
F6.871802806854248
tp2585
a(F-48.87226486206055
F0.00012968694500159472
F8.035088539123535
tp2586
a(F-48.87335205078125
F0.00012968982628080994
F9.208233833312988
tp2587
a.