(lp0
cnumpy.core.multiarray
scalar
p1
(cnumpy
dtype
p2
(S'f8'
p3
I0
I1
tp4
Rp5
(I3
S'<'
p6
NNNI-1
I-1
I0
tp7
bS'\xf9\xb2\x9c\t?\xa20\xc0'
p8
tp9
Rp10
ag1
(g5
S'\xd5\xf2 \x02\x7f\xc8Q\xc0'
p11
tp12
Rp13
a.